MPASM 5.86                        ESLAVE.ASM   11-21-2024  14:16:51         PAGE  1


LOC  OBJECT CODE     LINE SOURCE TEXT
  VALUE

                      00001 ;***************************************************************************
                      00002 ;
                      00003 ;           Filename: Eslave.ASM
                      00004 ;           Date: 11/05/2024
                      00005 ;           File Version: 1
                      00006 ;           Author: Owen Fujii
                      00007 ;           Company: Idaho State University
                      00008 ;           Description: A Program for a slave I2C device that plays notes on the
                      00009 ;                           E string of a Bass guitar
                      00010 ;**************************************************************************
                      00011         
                      00012 ;*************************************************************************
                      00013 ; 
                      00014 ;           Revision History:
                      00015 ;   
                      00016 ;           Modified as listed
                      00017 ;           Started 11/05/2024
                      00018 ;
                      00019 ;*************************************************************************
                      00020     
                      00021     ; PIC16F1788 Configuration Bit Settings
                      00022 
                      00023 ; Assembly source line config statements
                      00024 
                      00025         #include "p16f1789.inc"
                      00001         LIST
                      00002 
                      00003 ;==========================================================================
                      00004 ; Build date : Oct 24 2019
                      00005 ;  MPASM PIC16F1789 processor include
                      00006 ; 
                      00007 ;  (c) Copyright 1999-2019 Microchip Technology, All rights reserved
                      00008 ;==========================================================================
                      00009 
                      03193         LIST
                      00026         #INCLUDE <ESlaveSetup.inc>
                      00001 ;***************************************************************************
                      00002 ;
                      00003 ;           Filename: Setup.inc
                      00004 ;           Date: 09/24/2024
                      00005 ;           File Version: 1
                      00006 ;           Author: Owen Fujii
                      00007 ;           Company: Idaho State University
                      00008 ;           Description: A collection of registry setups and subroutines
                      00009 ;
                      00010 ;*************************************************************************
                      00011         
                      00012 ;*************************************************************************
                      00013 ; 
                      00014 ;           Revision History:
                      00015 ;   1: Inc file to contain generic registry setups 
                      00016 ;
                      00017 ;       2: Removed GPR setup and added code reference 
MPASM 5.86                        ESLAVE.ASM   11-21-2024  14:16:51         PAGE  2


LOC  OBJECT CODE     LINE SOURCE TEXT
  VALUE

                      00018 ;           Modified as listed
                      00019 ;           Started 09/24/2024 -Current version implemented 10/7/2024
                      00020 ;
                      00021 ;*************************************************************************
                      00022         
                      00023         
                      00024 START_CODE CODE
                      00025 
0000                  00026 START
                      00027 
                      00028                 
                      00029 ;*** SET OPTION_REG: ****
0000   0021           00030                 BANKSEL OPTION_REG
0001   30F4           00031                 MOVLW H'F4'                             ; INITIALIZE SET OF RBPU INTEDG T0SE 
Message[302]: Register in operand not in bank 0.  Ensure that bank bits are correct.
0002   0095           00032                 MOVWF OPTION_REG
                      00033 ;*** SET INTCON REG: ****
0003   0020           00034                 BANKSEL INTCON
0004   3000           00035                 MOVLW H'00'
0005   008B           00036                 MOVWF INTCON                            ; INIT PEIE
                      00037 ;*** SET PIE1 REG: *****
0006   0021           00038                 BANKSEL PIE1
0007   3000           00039                 MOVLW H'00'                             ; INIT PIE1 CLEAR
Message[302]: Register in operand not in bank 0.  Ensure that bank bits are correct.
0008   0091           00040                 MOVWF PIE1
                      00041 ;***** SET PIE2 REG: *****
0009   0021           00042                 BANKSEL PIE2
000A   3000           00043                 MOVLW H'00'                             ; INIT OSFIE CLEAR OTHERS
Message[302]: Register in operand not in bank 0.  Ensure that bank bits are correct.
000B   0092           00044                 MOVWF PIE2
                      00045 ;*** SET CCP1CON REG: **
000C   0025           00046                 BANKSEL CCP1CON
000D   3000           00047                 MOVLW   H'000'                          ;DISABLE PWM & CCP
Message[302]: Register in operand not in bank 0.  Ensure that bank bits are correct.
000E   0093           00048                 MOVWF   CCP1CON
000F   0025           00049                 BANKSEL CCP2CON
Message[302]: Register in operand not in bank 0.  Ensure that bank bits are correct.
0010   019A           00050                 CLRF CCP2CON
0011   0022           00051                 BANKSEL CM2CON1
0012   3000           00052                 MOVLW   H'000'
Message[302]: Register in operand not in bank 0.  Ensure that bank bits are correct.
0013   0094           00053                 MOVWF   CM2CON1
                      00054 
                      00055 ;*** TIMER 1 SETUP *****
0014   0020           00056                 BANKSEL T1CON
0015   3000           00057                 MOVLW   H'000'                          ;
0016   0098           00058                 MOVWF   T1CON                           ;DISABLE TIMER 1
                      00059 
                      00060 ;*** TIMER 2 SETUP *****
                      00061 
0017   0020           00062                 BANKSEL T2CON
0018   019C           00063                 CLRF    T2CON                           ;DISABLE TIMER 2, 1:1 POST SCALE, PRESCALER 1
0019   3000           00064                 MOVLW   H'000'                          ;SET PR2 FOR FULL COUNT 
MPASM 5.86                        ESLAVE.ASM   11-21-2024  14:16:51         PAGE  3


LOC  OBJECT CODE     LINE SOURCE TEXT
  VALUE

001A   0020           00065                 BANKSEL PR2                             ;
001B   009B           00066                 MOVWF   PR2                             ;PR2 IS SETS OUTPUT OF PWM HIGH WHEN = TMR2
                      00067  
                      00068 ;*** PORT A SETUP **** PORT B RB0 IS USED AS EDGE TRIGGERED INPUT
                      00069 
001C   0021           00070                 BANKSEL ADCON1
Message[302]: Register in operand not in bank 0.  Ensure that bank bits are correct.
001D   139E           00071                 BCF     ADCON1,7
Message[302]: Register in operand not in bank 0.  Ensure that bank bits are correct.
001E   169E           00072                 BSF     ADCON1,5
Message[302]: Register in operand not in bank 0.  Ensure that bank bits are correct.
001F   171E           00073                 BSF     ADCON1,6
0020   0020           00074                 BANKSEL PORTA
0021   018C           00075                 CLRF    PORTA                           ; CLEAR PORTA
0022   0023           00076                 BANKSEL ANSELA
0023   3000           00077                 MOVLW H'000'
Message[302]: Register in operand not in bank 0.  Ensure that bank bits are correct.
0024   008C           00078                 MOVWF ANSELA
0025   0021           00079                 BANKSEL TRISA
0026   3000           00080                 MOVLW   H'000'                          ;SET PORT A OUTPUT
Message[302]: Register in operand not in bank 0.  Ensure that bank bits are correct.
0027   008C           00081                 MOVWF   TRISA
                      00082                 
                      00083 ;*** PORT B SETUP **** PORT B RB0 IS USED AS EDGE TRIGGERED INPUT
0028   0020           00084                 BANKSEL PORTB
0029   018D           00085                 CLRF    PORTB                           ; CLEAR PORTB 
002A   0021           00086                 BANKSEL TRISB
002B   3000           00087                 MOVLW   H'000'                          ;SET PORT B AS OUTPUT
Message[302]: Register in operand not in bank 0.  Ensure that bank bits are correct.
002C   008D           00088                 MOVWF   TRISB
002D   0023           00089                 BANKSEL ANSELB
002E   3000           00090                 MOVLW H'000'                            ; DISABLE ADC INPUTS BANK B
Message[302]: Register in operand not in bank 0.  Ensure that bank bits are correct.
002F   008D           00091                 MOVWF ANSELB                            
0030   0024           00092                 BANKSEL WPUB                            ; DISABLE ALL WEAK PULL UPS PORT B
0031   3000           00093                 MOVLW   H'000'
Message[302]: Register in operand not in bank 0.  Ensure that bank bits are correct.
0032   008D           00094                 MOVWF   WPUB
0033   0025           00095                 BANKSEL ODCONB
Message[302]: Register in operand not in bank 0.  Ensure that bank bits are correct.
0034   018D           00096                 CLRF ODCONB                             ; DISABLE OPEN DRAIN DRIVE
0035   0026           00097                 BANKSEL SLRCONB
Message[302]: Register in operand not in bank 0.  Ensure that bank bits are correct.
0036   018D           00098                 CLRF SLRCONB                            ; DISABLE SLEW RATE LIMITS
                      00099                 
                      00100                 
                      00101 
                      00102 ;*** PORT C SETUP **** PORT B RB0 IS USED AS EDGE TRIGGERED INPUT
0037   0020           00103                 BANKSEL PORTC
0038   018E           00104                 CLRF    PORTC                           ; CLEAR PORTC
0039   0023           00105                 BANKSEL ANSELC
003A   3000           00106                 MOVLW H'000'
Message[302]: Register in operand not in bank 0.  Ensure that bank bits are correct.
MPASM 5.86                        ESLAVE.ASM   11-21-2024  14:16:51         PAGE  4


LOC  OBJECT CODE     LINE SOURCE TEXT
  VALUE

003B   008E           00107                 MOVWF ANSELC
003C   0021           00108                 BANKSEL TRISC
003D   30FF           00109                 MOVLW   H'0FF'                          ;SET PORT C AS INPUT
Message[302]: Register in operand not in bank 0.  Ensure that bank bits are correct.
003E   008E           00110                 MOVWF   TRISC
003F   0008           00111                 RETURN
                      00112                 
                      00113 ; *** PORT D SETUP **** 
0040   0020           00114                 BANKSEL PORTD
0041   018F           00115                 CLRF PORTD
0042   0021           00116                 BANKSEL TRISD
0043   3000           00117                 MOVLW H'000'
Message[302]: Register in operand not in bank 0.  Ensure that bank bits are correct.
0044   008F           00118                 MOVWF TRISD                             ; SET PORTD AS OUTPUT
0045   0023           00119                 BANKSEL ANSELD
Message[302]: Register in operand not in bank 0.  Ensure that bank bits are correct.
0046   018F           00120                 CLRF ANSELD                             ; SET DIGITAL I/O
0047   0024           00121                 BANKSEL WPUD
Message[302]: Register in operand not in bank 0.  Ensure that bank bits are correct.
0048   018F           00122                 CLRF WPUD                               ; DISABLE WEAK PULL UPS
0049   0025           00123                 BANKSEL ODCOND
Message[302]: Register in operand not in bank 0.  Ensure that bank bits are correct.
004A   018F           00124                 CLRF ODCOND                              ; DISABLE OPEN DRAIN
004B   0026           00125                 BANKSEL SLRCOND                         
Message[302]: Register in operand not in bank 0.  Ensure that bank bits are correct.
004C   018F           00126                 CLRF SLRCOND                             ; MAX SLEW RATE
                      00127                 
                      00027         #INCLUDE <ESlavePOPout.inc>
                      00001 ;***************************************************************************
                      00002 ;
                      00003 ;           Filename: POPout.inc
                      00004 ;           Date: 09/24/2024
                      00005 ;           File Version: 1
                      00006 ;           Author: Owen Fujii
                      00007 ;           Company: Idaho State University
                      00008 ;           Description: A sub routine for restoring working and status
                      00009 ;
                      00010 ;*************************************************************************
                      00011         
                      00012 ;*************************************************************************
                      00013 ; 
                      00014 ;           Revision History:
                      00015 ;   
                      00016 ;           Modified as listed
                      00017 ;           Started 09/25/2024 - Finished 09/25/2024
                      00018 ;
                      00019 ;*************************************************************************
                      00020         
                      00021 POPOUT_CODE CODE
                      00022  
0000                  00023 POPOUT
0000   0821           00024             MOVF H'21',0
0001   0083           00025             MOVWF STATUS
MPASM 5.86                        ESLAVE.ASM   11-21-2024  14:16:51         PAGE  5


LOC  OBJECT CODE     LINE SOURCE TEXT
  VALUE

0002   0820           00026             MOVF H'20',0
0003   0008           00027             RETURN
                      00028         #INCLUDE <ESlavePUSHin.inc>
                      00001 ;***************************************************************************
                      00002 ;
                      00003 ;           Filename: PUSHin.inc
                      00004 ;           Date: 09/24/2024
                      00005 ;           File Version: 1
                      00006 ;           Author: Owen Fujii
                      00007 ;           Company: Idaho State University
                      00008 ;           Description: A Sub routine for saving status and working 
                      00009 ;
                      00010 ;*************************************************************************
                      00011         
                      00012 ;*************************************************************************
                      00013 ; 
                      00014 ;           Revision History:
                      00015 ;   
                      00016 ;           Modified as listed
                      00017 ;           Started 09/25/2024 - Finished 09/25/2024
                      00018 ;           Modified 09/26/24
                      00019 ;               CHANGED ORDER OF MOVWF FOR CORRECT STORAGE
                      00020 ;
                      00021 ;*************************************************************************
                      00022 PUSHIN_CODE CODE
                      00023 
0000                  00024 PUSHIN
0000   00A0           00025                 MOVWF H'20'
0001   0803           00026                 MOVF STATUS,0      ; ROUTINE FOR RESTORING WORKING AND STATUS
0002   00A1           00027                 MOVWF H'21'     
0003   0008           00028                 RETURN
                      00029         #INCLUDE <StepperDrive.inc>
                      00001 ;***************************************************************************
                      00002 ;
                      00003 ;           Filename: StepperDrive.ASM
                      00004 ;           Date: 11/21/2024
                      00005 ;           File Version: 1
                      00006 ;           Author: Owen Fujii
                      00007 ;           Company: Idaho State University
                      00008 ;           Description: An include file for stepping an output at a 50% duty
                      00009 ;                           cycle based on a set time delay. works for 4 byte 
                      00010 ;                           step count up to 0xFFFF FFFF 
                      00011 ;**************************************************************************
                      00012         
                      00013 ;*************************************************************************
                      00014 ; 
                      00015 ;           Revision History:
                      00016 ;   
                      00017 ;           Modified as listed
                      00018 ;           Started 11/21/2024
                      00019 ;
                      00020 ;*************************************************************************
                      00021     
MPASM 5.86                        ESLAVE.ASM   11-21-2024  14:16:51         PAGE  6


LOC  OBJECT CODE     LINE SOURCE TEXT
  VALUE

                      00022 ; GPR Reservations  
Warning[207]: Found label after column 1. (STEPBYTE1)
  00000060            00023         STEPBYTE1       EQU     H'060'
Warning[207]: Found label after column 1. (STEPBYTE2)
  00000061            00024         STEPBYTE2       EQU     H'061'
Warning[207]: Found label after column 1. (STEPBYTE3)
  00000062            00025         STEPBYTE3       EQU     H'062'
Warning[207]: Found label after column 1. (STEPBYTE4)
  00000063            00026         STEPBYTE4       EQU     H'063'
Warning[207]: Found label after column 1. (LOWOFFSET)
  00000064            00027         LOWOFFSET       EQU     H'064'
Warning[207]: Found label after column 1. (MIDOFFSET)
  00000065            00028         MIDOFFSET       EQU     H'065'
Warning[207]: Found label after column 1. (HIGHOFFSET)
  00000066            00029         HIGHOFFSET      EQU     H'066'
                      00030         
                      00031 DRIVE_CODE CODE
                      00032  
0000                  00033 DRIVE
0000   0020           00034         BANKSEL PORTB
0001   3000           00035         MOVLW H'000'
0002   0263           00036         SUBWF STEPBYTE4,0       ; SKIP BYTE IF IT IS 0
0003   1903           00037         BTFSC STATUS,Z
0004   2???           00038         GOTO EVALBYTE3
                      00039         ; 
0005                  00040 HIGHESTLOOP
0005   01E6           00041         CLRF HIGHOFFSET 
0006                  00042 MIDESTLOOP
0006   01E5           00043         CLRF MIDOFFSET
0007                  00044 MIDDLELOOP
0007   01E4           00045         CLRF LOWOFFSET
0008                  00046 LOWESTLOOP
0008   2???           00047         CALL STEP
0009   0BE4           00048         DECFSZ LOWOFFSET,1
000A   2???           00049         GOTO LOWESTLOOP
000B   0BE5           00050         DECFSZ MIDOFFSET,1
000C   2???           00051         GOTO MIDDLELOOP
000D   0B??           00052         DECFSZ HIGHESTLOOP,1
000E   2???           00053         GOTO MIDESTLOOP
000F   0BE3           00054         DECFSZ STEPBYTE4,1
0010   2???           00055         GOTO HIGHESTLOOP
                      00056         
0011                  00057 EVALBYTE3
0011   3000           00058         MOVLW H'000'
0012   0262           00059         SUBWF STEPBYTE3,0       ; SKIP BYTE IF IT IS 0
0013   1903           00060         BTFSC STATUS,Z
0014   2???           00061         GOTO EVALBYTE2
                      00062         ;
0015                  00063 HIGHLOOP
0015   01E5           00064         CLRF MIDOFFSET          ; NESTED LOOP THAT RESPECTS BITS ABOVE 0xFFFF
0016                  00065 MIDLOOP
0016   01E4           00066         CLRF LOWOFFSET
0017                  00067 LOWLOOP
MPASM 5.86                        ESLAVE.ASM   11-21-2024  14:16:51         PAGE  7


LOC  OBJECT CODE     LINE SOURCE TEXT
  VALUE

0017   2???           00068         CALL STEP
0018   0BE4           00069         DECFSZ LOWOFFSET,1
0019   2???           00070         GOTO LOWLOOP
001A   0BE5           00071         DECFSZ MIDOFFSET,1
001B   2???           00072         GOTO MIDLOOP
001C   0BE2           00073         DECFSZ STEPBYTE3,1
001D   2???           00074         GOTO HIGHLOOP
                      00075         
                      00076         
001E                  00077 EVALBYTE2
001E   3000           00078         MOVLW H'000'
001F   0261           00079         SUBWF STEPBYTE2,0       ; SKIP BYTE IF IT IS 0
0020   1903           00080         BTFSC STATUS,Z
0021   2???           00081         GOTO EVALBYTE1
                      00082         ;
0022                  00083 UPPERLOOP0
0022   01E4           00084         CLRF LOWOFFSET
0023                  00085 LOOP0
0023   2???           00086         CALL STEP
0024   0BE4           00087         DECFSZ LOWOFFSET,1
0025   2???           00088         GOTO LOOP0
0026   0BE1           00089         DECFSZ STEPBYTE2,1
0027   2???           00090         GOTO UPPERLOOP0
                      00091         
                      00092         
0028                  00093 EVALBYTE1
0028   3000           00094         MOVLW H'000'
0029   0260           00095         SUBWF STEPBYTE1,0       ; SKIP BYTE IF IT IS 0
002A   1903           00096         BTFSC STATUS,Z
002B   0008           00097         RETURN
                      00098         ;
002C                  00099 LOWERLOOP1
002C   2???           00100         CALL STEP
002D   0BE0           00101         DECFSZ STEPBYTE1,1
002E   2???           00102         GOTO LOWERLOOP1
002F   0008           00103         RETURN
                      00104         
                      00105         
0030                  00106 STEP
0030   158D           00107         BSF PORTB,3         ; SET OUTPUT HIGH FOR PULSE WIDTH
0031   2???           00108         CALL DELAY          ; CALL DELAY FOR PULSE WIDTH
0032   1C11           00109         BTFSS PIR1,TMR1IF   ; POLL COMPLETION OF TMR1
0033   2???           00110         GOTO $-1
0034   1018           00111         BCF T1CON,0         ; TURN OFF TIMER
0035   118D           00112         BCF PORTB,3         ; CLEAR OUTPUT FOR PULSE WIDTH
0036   2???           00113         CALL DELAY          ; CALL SAME DELAY FOR ~50% DC 
0037   1C11           00114         BTFSS PIR1,TMR1IF
0038   2???           00115         GOTO $-1
0039   1018           00116         BCF T1CON,0         ; TURN OFF TIMER
003A   0008           00117         RETURN
                      00118 
                      00119         
003B                  00120 DELAY
MPASM 5.86                        ESLAVE.ASM   11-21-2024  14:16:51         PAGE  8


LOC  OBJECT CODE     LINE SOURCE TEXT
  VALUE

003B   0020           00121         BANKSEL TMR1H
003C   30FF           00122         MOVLW H'0FF'
003D   0097           00123         MOVWF TMR1H
003E   0020           00124         BANKSEL TMR1L
003F   30A0           00125         MOVLW H'0A0'
0040   0096           00126         MOVWF TMR1L         ; LOAD TMR REGISTERS TO PRODUCE A 25K COUNT
0041   0020           00127         BANKSEL T1CON
0042   3034           00128         MOVLW H'034'    ; 1:8 PRESCALE WITH INSTRUCTION CLK AS SOURCE 
0043   0098           00129         MOVWF T1CON
0044   1418           00130         BSF T1CON,0         ; ENABLE TIMER 1
0045   1011           00131         BCF PIR1,TMR1IF
0046   0008           00132         RETURN
                      00133         
                      00134         
                      00135     
                      00136     
                      00030 
                      00031 ; CONFIG1
                      00032 ; __config 0xE9A4
8007   21A4           00033  __CONFIG _CONFIG1, _FOSC_INTOSC & _WDTE_OFF & _PWRTE_OFF & _MCLRE_OFF & _CP_OFF & _CPD_OFF & _BOREN_OFF
                             & _CLKOUTEN_ON & _IESO_OFF & _FCMEN_ON
                      00034 ; CONFIG2
                      00035 ; __config 0xDFFF
8008   1FFF           00036  __CONFIG _CONFIG2, _WRT_OFF & _VCAPEN_OFF & _PLLEN_ON & _STVREN_ON & _BORV_LO & _LPBOR_OFF & _LVP_OFF
                      00037 
                      00038  
                      00039  ;*********************
                      00040  ;Define Constants
                      00041  ;*********************
                      00042  
Warning[207]: Found label after column 1. (PITCH)
  00000022            00043         PITCH       EQU H'022'
Warning[207]: Found label after column 1. (BUFFER)
  00000041            00044         BUFFER      EQU H'041'
Warning[207]: Found label after column 1. (DISABLE)
  00000042            00045         DISABLE     EQU H'042'
                      00046 ; SET STORAGE REGISTERS FOR EACH NOTE AND ITS MIDI VALUES
Warning[207]: Found label after column 1. (E1MIDI)
  00000023            00047         E1MIDI      EQU H'023'
Warning[207]: Found label after column 1. (F1MIDI)
  00000024            00048         F1MIDI      EQU H'024'
Warning[207]: Found label after column 1. (FS1MIDI)
  00000025            00049         FS1MIDI     EQU H'025'
Warning[207]: Found label after column 1. (G1MIDI)
  00000026            00050         G1MIDI      EQU H'026'
Warning[207]: Found label after column 1. (GS1MIDI)
  00000027            00051         GS1MIDI     EQU H'027'
Warning[207]: Found label after column 1. (A1MIDI)
  00000028            00052         A1MIDI      EQU H'028'
Warning[207]: Found label after column 1. (AS1MIDI)
  00000029            00053         AS1MIDI     EQU H'029'
Warning[207]: Found label after column 1. (B1MIDI)
  00000030            00054         B1MIDI      EQU H'030'
MPASM 5.86                        ESLAVE.ASM   11-21-2024  14:16:51         PAGE  9


LOC  OBJECT CODE     LINE SOURCE TEXT
  VALUE

Warning[207]: Found label after column 1. (C2MIDI)
  00000031            00055         C2MIDI      EQU H'031'
Warning[207]: Found label after column 1. (CS2MIDI)
  00000032            00056         CS2MIDI     EQU H'032'
Warning[207]: Found label after column 1. (D2MIDI)
  00000033            00057         D2MIDI      EQU H'033'
Warning[207]: Found label after column 1. (DS2MIDI)
  00000034            00058         DS2MIDI     EQU H'034'
Warning[207]: Found label after column 1. (E2MIDI)
  00000035            00059         E2MIDI      EQU H'035'
Warning[207]: Found label after column 1. (F2MIDI)
  00000036            00060         F2MIDI      EQU H'036'
Warning[207]: Found label after column 1. (FS2MIDI)
  00000037            00061         FS2MIDI     EQU H'037'
Warning[207]: Found label after column 1. (G2MIDI)
  00000038            00062         G2MIDI      EQU H'038'
Warning[207]: Found label after column 1. (GS2MIDI)
  00000039            00063         GS2MIDI     EQU H'039'
Warning[207]: Found label after column 1. (A2MIDI)
  00000040            00064         A2MIDI      EQU H'040'
Warning[207]: Found label after column 1. (AS2MIDI)
  00000041            00065         AS2MIDI     EQU H'041'
Warning[207]: Found label after column 1. (B2MIDI)
  00000042            00066         B2MIDI      EQU H'042'
Warning[207]: Found label after column 1. (C3MIDI)
  00000043            00067         C3MIDI      EQU H'043'
                      00068 ; SET STEPPER MOTOR STEP REGISTERS
Warning[207]: Found label after column 1. (STEPBYTE1)
  00000060            00069         STEPBYTE1   EQU H'060'
Warning[207]: Found label after column 1. (STEPBYTE2)
  00000061            00070         STEPBYTE2   EQU H'061'
Warning[207]: Found label after column 1. (STEPBYTE3)
  00000062            00071         STEPBYTE3   EQU H'062'
Warning[207]: Found label after column 1. (STEPBYTE4)
  00000063            00072         STEPBYTE4   EQU H'063'
                      00073 ; RESERVED REGISTERS FOR STEPPER INCLUDE
                      00074 ;       HIGHOFFSET  EQU H'064'
                      00075 ;       MIDOFFSET   EQU H'065'
                      00076 ;       LOWOFFSET   EQU H'066'
                      00077 ;***** GPR'S FOR POSITION TRACKING ****
Warning[207]: Found label after column 1. (CURRENTPTH)
  00000046            00078         CURRENTPTH   EQU H'046'
Warning[207]: Found label after column 1. (CURRENTPTL)
  00000047            00079         CURRENTPTL   EQU H'047'
Warning[207]: Found label after column 1. (NEXTPTH)
  00000049            00080         NEXTPTH      EQU H'049'
Warning[207]: Found label after column 1. (NEXTPTL)
  00000050            00081         NEXTPTL      EQU H'050'     
                      00082           
                      00083         
                      00084 
                      00085     ORG H'000'                                  
0000   2???           00086     GOTO SETUP                                  ;RESET CONDITION GOTO SETUP
MPASM 5.86                        ESLAVE.ASM   11-21-2024  14:16:51         PAGE 10


LOC  OBJECT CODE     LINE SOURCE TEXT
  VALUE

                      00087     ORG H'004'
0004   2???           00088     GOTO INTER
                      00089     
                      00090     
                      00091     
0005                  00092 SETUP
0005   0021           00093     BANKSEL OSCCON
0006   307B           00094     MOVLW H'07B'            ; SET 8MHZ INTERNAL OSSCILATOR
Message[302]: Register in operand not in bank 0.  Ensure that bank bits are correct.
0007   0099           00095     MOVWF OSCCON
0008   0021           00096     BANKSEL OSCSTAT
Message[302]: Register in operand not in bank 0.  Ensure that bank bits are correct.
0009   1A9A           00097     BTFSC OSCSTAT,OSTS      ; WAIT FOR OSSCILATOR TO BE READY
000A   2???           00098     GOTO $-1
000B   2???           00099     CALL START              ; CALL SETUP INCLUDE
                      00100     ; SET UP I2C AS SLAVE
000C   0024           00101     BANKSEL SSP1CON1
000D   3036           00102     MOVLW H'036'            ; SET 7 BIT SLAVE I2C
Message[302]: Register in operand not in bank 0.  Ensure that bank bits are correct.
000E   0095           00103     MOVWF SSP1CON1
000F   0024           00104     BANKSEL SSP1ADD
0010   3002           00105     MOVLW H'002'            ; SET SLAVE ADDRESS A 0X01
Message[302]: Register in operand not in bank 0.  Ensure that bank bits are correct.
0011   0092           00106     MOVWF SSP1ADD
0012   0024           00107     BANKSEL SSP1CON2
Message[302]: Register in operand not in bank 0.  Ensure that bank bits are correct.
0013   0196           00108     CLRF SSP1CON2
Message[302]: Register in operand not in bank 0.  Ensure that bank bits are correct.
0014   1416           00109     BSF SSP1CON2,SEN        ; ENABLE CLOCK STRETCH
0015   0024           00110     BANKSEL SSP1CON3
Message[302]: Register in operand not in bank 0.  Ensure that bank bits are correct.
0016   0197           00111     CLRF SSP1CON3
Message[302]: Register in operand not in bank 0.  Ensure that bank bits are correct.
0017   1497           00112     BSF SSP1CON3,AHEN       ; ENABLE CLOCK STRETCH FOR ADDRESS AND DATA
Message[302]: Register in operand not in bank 0.  Ensure that bank bits are correct.
0018   1417           00113     BSF SSP1CON3,DHEN
                      00114     ; CONFIGURE PORT PINS
0019   0022           00115     BANKSEL APFCON1
Message[302]: Register in operand not in bank 0.  Ensure that bank bits are correct.
001A   019D           00116     CLRF APFCON1            ; SET PORTS
001B   0022           00117     BANKSEL APFCON2
Message[302]: Register in operand not in bank 0.  Ensure that bank bits are correct.
001C   019C           00118     CLRF APFCON2            ; SET PORTS
                      00119     ; SET MIDI NOTES INTO GPRS
001D   301C           00120     MOVLW H'01C'    ; MIDI 28 // E1
001E   00A3           00121     MOVWF E1MIDI
001F   301D           00122     MOVLW H'01D'    ; MIDI 29 // F1
0020   00A4           00123     MOVWF F1MIDI
0021   301E           00124     MOVLW H'01E'    ; MIDI 30 // F#1
0022   00A5           00125     MOVWF FS1MIDI
0023   301F           00126     MOVLW H'01F'    ; MIDI 31 // G1
0024   00A6           00127     MOVWF G1MIDI
0025   3020           00128     MOVLW H'020'    ; MIDI 32 // G#1
MPASM 5.86                        ESLAVE.ASM   11-21-2024  14:16:51         PAGE 11


LOC  OBJECT CODE     LINE SOURCE TEXT
  VALUE

0026   00A7           00129     MOVWF GS1MIDI
0027   3021           00130     MOVLW H'021'    ; MIDI 33 // A1
0028   00A8           00131     MOVWF A1MIDI
0029   3022           00132     MOVLW H'022'    ; MIDI 34 // A#1
002A   00A9           00133     MOVWF AS1MIDI
002B   3023           00134     MOVLW H'023'    ; MIDI 35 // B1
002C   00B0           00135     MOVWF B1MIDI
002D   3024           00136     MOVLW H'024'    ; MIDI 36 // C2
002E   00B1           00137     MOVWF C2MIDI
002F   3025           00138     MOVLW H'025'    ; MIDI 37 // C#2
0030   00B2           00139     MOVWF CS2MIDI
0031   3026           00140     MOVLW H'026'    ; MIDI 38 // D2
0032   00B3           00141     MOVWF D2MIDI
0033   3027           00142     MOVLW H'027'    ; MIDI 39 // D#2
0034   00B4           00143     MOVWF DS2MIDI
0035   3028           00144     MOVLW H'028'    ; MIDI 40 // E2
0036   00B5           00145     MOVWF E2MIDI
0037   3029           00146     MOVLW H'029'    ; MIDI 41 // F2
0038   00B6           00147     MOVWF F2MIDI
0039   302A           00148     MOVLW H'02A'    ; MIDI 42 // F#2
003A   00B7           00149     MOVWF FS2MIDI
003B   302B           00150     MOVLW H'02B'    ; MIDI 43 // G2
003C   00B8           00151     MOVWF G2MIDI
003D   302C           00152     MOVLW H'02C'    ; MIDI 44 // G#2
003E   00B9           00153     MOVWF GS2MIDI
003F   302D           00154     MOVLW H'02D'    ; MIDI 45 // A2
0040   00C0           00155     MOVWF A2MIDI
0041   302E           00156     MOVLW H'02E'    ; MIDI 46 // A#2
0042   00C1           00157     MOVWF AS2MIDI
0043   302F           00158     MOVLW H'02F'    ; MIDI 47 // B2
0044   00C2           00159     MOVWF B2MIDI
0045   3030           00160     MOVLW H'030'    ; MIDI 48 // C3
0046   00C3           00161     MOVWF C3MIDI    
                      00162     ; STEPPER REGISTERS
0047   01E3           00163     CLRF STEPBYTE4
0048   01E2           00164     CLRF STEPBYTE3
0049   01E1           00165     CLRF STEPBYTE2
                      00166     ; ENABLE INTERRUPTS
004A   0021           00167     BANKSEL PIE1
Message[302]: Register in operand not in bank 0.  Ensure that bank bits are correct.
004B   1591           00168     BSF PIE1,SSP1IE
004C   178B           00169     BSF INTCON,GIE          ; ENABLE INTERRUPTS
004D   170B           00170     BSF INTCON,PEIE
004E   0020           00171     BANKSEL PORTA
004F   140C           00172     BSF PORTA,0             ; SET STATUS FLAG
0050   2???           00173     GOTO MAIN
                      00174 
0051                  00175 MAIN
0051   160D           00176     BSF PORTB,4
0052   30FF           00177     MOVLW H'0FF'    
0053   00E1           00178     MOVWF STEPBYTE2
0054   00E0           00179     MOVWF STEPBYTE1
0055   2???           00180     CALL DRIVE
MPASM 5.86                        ESLAVE.ASM   11-21-2024  14:16:51         PAGE 12


LOC  OBJECT CODE     LINE SOURCE TEXT
  VALUE

0056   120D           00181     BCF PORTB,4
0057   30FF           00182     MOVLW H'0FF'    
0058   00E1           00183     MOVWF STEPBYTE2
0059   00E0           00184     MOVWF STEPBYTE1
005A   2???           00185     CALL DRIVE
005B   2???           00186     GOTO MAIN
                      00187 ;    NOP
                      00188 ;    BANKSEL SSP1STAT
                      00189 ;    BTFSC SSP1STAT,1   ; POLL STOP BIT
                      00190 ;    CALL STOP
                      00191 ;    BANKSEL PORTB
                      00192 ;    BTFSS BUFFER,1
                      00193 ;    GOTO MAIN
                      00194 ;    BTFSC PITCH,7
                      00195 ;    BSF DISABLE,0      ; INDICATE NOTE IS TO BE ON
                      00196 ;    BCF PITCH,7                ; CLEAR UPPER BIT
                      00197 ;    ; CHECK IF PITCH IS E1
                      00198 ;    MOVF E1MIDI,0
                      00199 ;    CALL EQUALS
                      00200 ;    BTFSC STATUS,Z
                      00201 ;    GOTO SETE1
                      00202 ;    ; CHECK IF PITCH IS F1
                      00203 ;    MOVF F1MIDI,0
                      00204 ;    CALL EQUALS
                      00205 ;    BTFSC STATUS,Z
                      00206 ;    GOTO SETF1
                      00207 ;    ; CHECK IF PITCH IS F#1
                      00208 ;    MOVF FS1MIDI,0
                      00209 ;    CALL EQUALS
                      00210 ;    BTFSC STATUS,Z
                      00211 ;    GOTO SETFS1
                      00212 ;    ; CHECK IF PITCH IS G1
                      00213 ;    MOVF G1MIDI,0
                      00214 ;    CALL EQUALS
                      00215 ;    BTFSC STATUS,Z
                      00216 ;    GOTO SETG1
                      00217 ;    ; CHECK IF PITCH IS G#1
                      00218 ;    MOVF GS1MIDI,0
                      00219 ;    CALL EQUALS
                      00220 ;    BTFSC STATUS,Z
                      00221 ;    GOTO SETGS1
                      00222 ;    ; CHECK IF PITCH IS A1
                      00223 ;    MOVF A1MIDI,0
                      00224 ;    CALL EQUALS
                      00225 ;    BTFSC STATUS,Z
                      00226 ;    GOTO SETA1
                      00227 ;    GOTO MAIN
                      00228 ;    ; CHECK IF PITCH IS A#1
                      00229 ;    MOVF AS1MIDI,0
                      00230 ;    CALL EQUALS
                      00231 ;    BTFSC STATUS,Z
                      00232 ;    GOTO SETF1
                      00233 ;    ; CHECK IF PITCH IS B1
MPASM 5.86                        ESLAVE.ASM   11-21-2024  14:16:51         PAGE 13


LOC  OBJECT CODE     LINE SOURCE TEXT
  VALUE

                      00234 ;    MOVF B1MIDI,0
                      00235 ;    CALL EQUALS
                      00236 ;    BTFSC STATUS,Z
                      00237 ;    GOTO SETB1
                      00238 ;    ; CHECK IF PITCH IS C2
                      00239 ;    MOVF C2MIDI,0
                      00240 ;    CALL EQUALS
                      00241 ;    BTFSC STATUS,Z
                      00242 ;    GOTO SETC2
                      00243 ;    ; CHECK IF PITCH IS C#2
                      00244 ;    MOVF CS2MIDI,0
                      00245 ;    CALL EQUALS
                      00246 ;    BTFSC STATUS,Z
                      00247 ;    GOTO SETCS2
                      00248 ;    ; CHECK IF PITCH IS D2
                      00249 ;    MOVF D2MIDI,0
                      00250 ;    CALL EQUALS
                      00251 ;    BTFSC STATUS,Z
                      00252 ;    GOTO SETD2
                      00253 ;    ; CHECK IF PITCH IS D#2
                      00254 ;    MOVF DS2MIDI,0
                      00255 ;    CALL EQUALS
                      00256 ;    BTFSC STATUS,Z
                      00257 ;    GOTO SETDS2
                      00258 ;    ; CHECK IF PITCH IS E2
                      00259 ;    MOVF E2MIDI,0
                      00260 ;    CALL EQUALS
                      00261 ;    BTFSC STATUS,Z
                      00262 ;    GOTO SETE2
                      00263 ;    ; CHECK IF PITCH IS F2
                      00264 ;    MOVF F2MIDI,0
                      00265 ;    CALL EQUALS
                      00266 ;    BTFSC STATUS,Z
                      00267 ;    GOTO SETF2
                      00268 ;    ; CHECK IF PITCH IS F#2
                      00269 ;    MOVF FS2MIDI,0
                      00270 ;    CALL EQUALS
                      00271 ;    BTFSC STATUS,Z
                      00272 ;    GOTO SETFS2
                      00273 ;    ; CHECK IF PITCH IS G2
                      00274 ;    MOVF G2MIDI,0
                      00275 ;    CALL EQUALS
                      00276 ;    BTFSC STATUS,Z
                      00277 ;    GOTO SETG2
                      00278 ;    ; CHECK IF PITCH IS G#2
                      00279 ;    MOVF GS2MIDI,0
                      00280 ;    CALL EQUALS
                      00281 ;    BTFSC STATUS,Z
                      00282 ;    GOTO SETGS2
                      00283 ;    ; CHECK IF PITCH IS A2
                      00284 ;     MOVF A2MIDI,0
                      00285 ;    CALL EQUALS
                      00286 ;    BTFSC STATUS,Z
MPASM 5.86                        ESLAVE.ASM   11-21-2024  14:16:51         PAGE 14


LOC  OBJECT CODE     LINE SOURCE TEXT
  VALUE

                      00287 ;    GOTO SETA2
                      00288 ;    ; CHECK IF PITCH IS A#2
                      00289 ;    MOVF AS2MIDI,0
                      00290 ;    CALL EQUALS
                      00291 ;    BTFSC STATUS,Z
                      00292 ;    GOTO SETAS2
                      00293 ;    ; CHECK IF PITCH IS B2
                      00294 ;    MOVF B2MIDI,0
                      00295 ;    CALL EQUALS
                      00296 ;    BTFSC STATUS,Z
                      00297 ;    GOTO SETB2
                      00298 ;    ; CHECK IF PITCH IS C3
                      00299 ;    MOVF C3MIDI,0
                      00300 ;    CALL EQUALS
                      00301 ;    BTFSC STATUS,Z
                      00302 ;    GOTO SETC3
                      00303 ;    CLRF BUFFER
                      00304 ;    CLRF PITCH
                      00305 ;    GOTO MAIN  ; RETURN TO MAIN AFTER CLEARING BUFFER AND PITCH
                      00306     
                      00307     
005C                  00308 EQUALS
005C   1103           00309     BCF STATUS,Z
005D   0222           00310     SUBWF PITCH,0       ; STORE IN WORKING
005E   0008           00311     RETURN
                      00312  
005F                  00313 STOP
005F   0024           00314     BANKSEL SSP1CON1
Message[302]: Register in operand not in bank 0.  Ensure that bank bits are correct.
0060   1295           00315     BCF SSP1CON1,SSPEN
0061   0000           00316     NOP
0062   0000           00317     NOP
Message[302]: Register in operand not in bank 0.  Ensure that bank bits are correct.
0063   1695           00318     BSF SSP1CON1,SSPEN
0064   0008           00319     RETURN
                      00320     
0065                  00321 SETE1
                      00322   
0065                  00323 SETF1
                      00324  
                      00325    
0065                  00326 SETFS1
                      00327  
                      00328     
0065                  00329 SETG1
                      00330    
                      00331       
0065                  00332 SETGS1
                      00333  
                      00334     
0065                  00335 SETA1
                      00336 
                      00337     
MPASM 5.86                        ESLAVE.ASM   11-21-2024  14:16:51         PAGE 15


LOC  OBJECT CODE     LINE SOURCE TEXT
  VALUE

0065                  00338 SETAS1
                      00339    
                      00340   
                      00341    
0065                  00342 SETB1
                      00343  
                      00344     
0065                  00345 SETC2
                      00346   
                      00347     
0065                  00348 SETCS2
                      00349   
                      00350     
0065                  00351 SETD2
                      00352  
                      00353  
                      00354     
0065                  00355 SETDS2
                      00356    
                      00357     
0065                  00358 SETE2
                      00359    
                      00360     
0065                  00361 SETF2
                      00362    
                      00363     
0065                  00364 SETFS2
                      00365    
0065                  00366 SETG2
                      00367  
                      00368     
0065                  00369 SETGS2
                      00370    
                      00371     
0065                  00372 SETA2
                      00373   
                      00374     
0065                  00375 SETAS2
                      00376    
0065                  00377 SETB2
                      00378   
                      00379     
0065                  00380 SETC3
0065   2???           00381    GOTO MAIN
                      00382    
0066                  00383 CALCSTEP  ; CALCULATE THE STEPS THAT ARE NEED TO MOVE TO THE NEXT POSITION 
0066   0849           00384    MOVFW NEXTPTH
0067   0246           00385    SUBWF CURRENTPTH,0
0068   1903           00386    BTFSC STATUS,Z
0069   2???           00387    GOTO EVALLOW             ; UPPER BYTES ARE EQUAL CHECK LOWER BYTES
006A   1803           00388    BTFSC STATUS,C           ; IF RESULT IS POSITIVE CURRENT IS GREATER THAN 
006B   2???           00389    GOTO STEPBACKH           ; THE NEXT POSITION IS BEHIND CURRENT
006C   2???           00390    GOTO STEPFORWARDH        ; IF RESULT IS NEGATIVE MOVE BACK
MPASM 5.86                        ESLAVE.ASM   11-21-2024  14:16:51         PAGE 16


LOC  OBJECT CODE     LINE SOURCE TEXT
  VALUE

                      00391    
006D                  00392 EVALLOW
006D   0850           00393    MOVFW NEXTPTL
006E   0247           00394    SUBWF CURRENTPTL,0
006F   1903           00395    BTFSC STATUS,Z
0070   2???           00396    GOTO FIRE                ; CURRENT POSITION IS SAME AS LAST
0071   1803           00397    BTFSC STATUS,C
0072   2???           00398    GOTO STEPBACK
0073   2???           00399    GOTO STEPFORWARD
                      00400    
0074                  00401 STEPFORWARDH
0074   160D           00402    BSF PORTB,4              ; SET STEPPER TO CLOCKWISE ROTATION
0075   0846           00403    MOVFW CURRENTPTH
0076   0249           00404    SUBWF NEXTPTH,0
0077   00E1           00405    MOVWF STEPBYTE2          ; SET STEPS FOR HIGH BYTE
0078   0847           00406    MOVFW CURRENTPTL
0079   0250           00407    SUBWF NEXTPTL,0
007A   00E0           00408    MOVWF STEPBYTE1          ; SET STEPS FOR LOW BYTE
007B   2???           00409    GOTO FIRE
                      00410    
007C                  00411 STEPBACKH
007C   120D           00412    BCF PORTB,4              ; SET STEPPER FOR COUNTER CLOCKWISE ROTATION
007D   0849           00413    MOVFW NEXTPTH
007E   0246           00414    SUBWF CURRENTPTH,0
007F   00E1           00415    MOVWF STEPBYTE2          ; SET STEPS FOR HIGH BYTE
0080   0850           00416    MOVFW NEXTPTL
0081   0247           00417    SUBWF CURRENTPTL,0
0082   00E0           00418    MOVWF STEPBYTE1          ; SET STEPS FOR LOW BYTE
0083   2???           00419    GOTO FIRE
                      00420    
0084                  00421 STEPFORWARD
0084   0847           00422    MOVFW CURRENTPTL
0085   0250           00423    SUBWF NEXTPTL,0
0086   00E0           00424    MOVWF STEPBYTE1          ; SET STEPS FOR LOW BYTE
0087   2???           00425    GOTO FIRE
                      00426    
0088                  00427 STEPBACK
0088   0850           00428    MOVFW NEXTPTL
0089   0247           00429    SUBWF CURRENTPTL,0
008A   00E0           00430    MOVWF STEPBYTE1          ; SET STEPS FOR LOW BYTE
008B   2???           00431    GOTO FIRE
                      00432    
008C                  00433 FIRE
008C   2???           00434    CALL DRIVE
008D   0008           00435    RETURN
                      00436     
008E                  00437 INTER
008E   0020           00438     BANKSEL INTCON
008F   018B           00439     CLRF INTCON             ; CLEAR INTERRUPTS
0090   2???           00440     CALL PUSHIN             ; SAFE STATUS
0091   110D           00441     BCF PORTB,2
0092   0020           00442     BANKSEL PIR1
0093   1991           00443     BTFSC PIR1,SSP1IF       ; CHECK MSSP INTERRUPT FLAG
MPASM 5.86                        ESLAVE.ASM   11-21-2024  14:16:51         PAGE 17


LOC  OBJECT CODE     LINE SOURCE TEXT
  VALUE

0094   2???           00444     CALL RECIEVE        
0095   0020           00445     BANKSEL INTCON
0096   178B           00446     BSF INTCON,GIE          ; RE-ENABLE INTERRUPTS
0097   170B           00447     BSF INTCON,PEIE
0098   2???           00448     CALL POPOUT             ; RETURN STATUS'S
0099   0009           00449     RETFIE
                      00450     
009A                  00451 RECIEVE
009A   0020           00452     BANKSEL PIR1
009B   0191           00453     CLRF PIR1           ; CLEAR FLAG
009C   110D           00454     BCF PORTB,2
009D   0024           00455     BANKSEL SSP1BUF 
Message[302]: Register in operand not in bank 0.  Ensure that bank bits are correct.
009E   0811           00456     MOVF SSP1BUF,0      ; READ RECIEVED DATA
009F   0020           00457     BANKSEL PORTB
00A0   1C41           00458     BTFSS BUFFER,0
00A1   2???           00459     GOTO $+2            ; DO NOT WRITE IF THIS IS ADDRESS
00A2   00A2           00460     MOVWF PITCH         ; MOVE INTO GPR
00A3   14C1           00461     BSF BUFFER,1
00A4   1441           00462     BSF BUFFER,0
00A5   0024           00463     BANKSEL SSP1CON1    
Message[302]: Register in operand not in bank 0.  Ensure that bank bits are correct.
00A6   1615           00464     BSF SSP1CON1,CKP    ; RELEASE CLOCK LINE
00A7   0008           00465     RETURN
                      00466     
                      00467     
                      00468 
Warning[205]: Found directive in column 1. (END)
21A4 1FFF             00469 END
MPASM 5.86                        ESLAVE.ASM   11-21-2024  14:16:51         PAGE 18


SYMBOL TABLE
  LABEL                             VALUE 

A1MIDI                            00000028
A2MIDI                            00000040
ABDEN                             00000000
ABDOVF                            00000007
ACKDT                             00000005
ACKEN                             00000004
ACKSTAT                           00000006
ACKTIM                            00000007
ADCON0                            0000009D
ADCON1                            0000009E
ADCON2                            0000009F
ADCS0                             00000004
ADCS1                             00000005
ADCS2                             00000006
ADD0                              00000000
ADD1                              00000001
ADD2                              00000002
ADD3                              00000003
ADD4                              00000004
ADD5                              00000005
ADD6                              00000006
ADD7                              00000007
ADDEN                             00000003
ADFM                              00000007
ADFVR0                            00000000
ADFVR1                            00000001
ADGO                              00000001
ADIE                              00000006
ADIF                              00000006
ADNREF                            00000002
ADON                              00000000
ADPREF0                           00000000
ADPREF1                           00000001
ADRES                             0000009B
ADRESH                            0000009C
ADRESL                            0000009B
ADRMD                             00000007
AHEN                              00000001
ANSA0                             00000000
ANSA1                             00000001
ANSA2                             00000002
ANSA3                             00000003
ANSA4                             00000004
ANSA5                             00000005
ANSA7                             00000007
ANSB0                             00000000
ANSB1                             00000001
ANSB2                             00000002
ANSB3                             00000003
ANSB4                             00000004
ANSB5                             00000005
ANSB6                             00000006
ANSC0                             00000000
MPASM 5.86                        ESLAVE.ASM   11-21-2024  14:16:51         PAGE 19


SYMBOL TABLE
  LABEL                             VALUE 

ANSC1                             00000001
ANSC2                             00000002
ANSC3                             00000003
ANSC4                             00000004
ANSC5                             00000005
ANSC6                             00000006
ANSC7                             00000007
ANSD0                             00000000
ANSD1                             00000001
ANSD2                             00000002
ANSE0                             00000000
ANSE1                             00000001
ANSE2                             00000002
ANSELA                            0000018C
ANSELB                            0000018D
ANSELC                            0000018E
ANSELD                            0000018F
ANSELE                            00000190
APFCON                            0000011D
APFCON0                           0000011D
APFCON1                           0000011D
APFCON2                           0000011C
AS1MIDI                           00000029
AS2MIDI                           00000041
B1MIDI                            00000030
B2MIDI                            00000042
BAUD1CON                          0000019F
BAUDCON                           0000019F
BAUDCON1                          0000019F
BAUDCTL                           0000019F
BAUDCTL1                          0000019F
BCL1IE                            00000003
BCL1IF                            00000003
BF                                00000000
BOEN                              00000004
BORCON                            00000116
BORFS                             00000006
BORRDY                            00000000
BRG16                             00000003
BRGH                              00000002
BSR                               00000008
BSR0                              00000000
BSR1                              00000001
BSR2                              00000002
BSR3                              00000003
BSR4                              00000004
BSR_SHAD                          00000FE6
BUF0                              00000000
BUF1                              00000001
BUF2                              00000002
BUF3                              00000003
BUF4                              00000004
BUF5                              00000005
MPASM 5.86                        ESLAVE.ASM   11-21-2024  14:16:51         PAGE 20


SYMBOL TABLE
  LABEL                             VALUE 

BUF6                              00000006
BUF7                              00000007
BUFFER                            00000041
C                                 00000000
C1HYS                             00000001
C1IE                              00000005
C1IF                              00000005
C1INTN                            00000006
C1INTP                            00000007
C1NCH0                            00000000
C1NCH1                            00000001
C1NCH2                            00000002
C1OE                              00000005
C1ON                              00000007
C1OUT                             00000006
C1PCH0                            00000003
C1PCH1                            00000004
C1PCH2                            00000005
C1POL                             00000004
C1SP                              00000002
C1SYNC                            00000000
C1ZLF                             00000003
C2HYS                             00000001
C2IE                              00000006
C2IF                              00000006
C2INTN                            00000006
C2INTP                            00000007
C2MIDI                            00000031
C2NCH0                            00000000
C2NCH1                            00000001
C2NCH2                            00000002
C2OE                              00000005
C2ON                              00000007
C2OUT                             00000006
C2OUTSEL                          00000007
C2PCH0                            00000003
C2PCH1                            00000004
C2PCH2                            00000005
C2POL                             00000004
C2SP                              00000002
C2SYNC                            00000000
C2ZLF                             00000003
C3HYS                             00000001
C3IE                              00000001
C3IF                              00000001
C3INTN                            00000006
C3INTP                            00000007
C3MIDI                            00000043
C3NCH0                            00000000
C3NCH1                            00000001
C3NCH2                            00000002
C3OE                              00000005
C3ON                              00000007
MPASM 5.86                        ESLAVE.ASM   11-21-2024  14:16:51         PAGE 21


SYMBOL TABLE
  LABEL                             VALUE 

C3OUT                             00000006
C3PCH0                            00000003
C3PCH1                            00000004
C3PCH2                            00000005
C3POL                             00000004
C3SP                              00000002
C3SYNC                            00000000
C3ZLF                             00000003
C4HYS                             00000001
C4IE                              00000002
C4IF                              00000002
C4INTN                            00000006
C4INTP                            00000007
C4NCH0                            00000000
C4NCH1                            00000001
C4NCH2                            00000002
C4OE                              00000005
C4ON                              00000007
C4OUT                             00000006
C4PCH0                            00000003
C4PCH1                            00000004
C4PCH2                            00000005
C4POL                             00000004
C4SP                              00000002
C4SYNC                            00000000
C4ZLF                             00000003
CALCSTEP                          00000066
CCP1CON                           00000293
CCP1IE                            00000002
CCP1IF                            00000002
CCP1M0                            00000000
CCP1M1                            00000001
CCP1M2                            00000002
CCP1M3                            00000003
CCP1SEL                           00000006
CCP2CON                           0000029A
CCP2IE                            00000000
CCP2IF                            00000000
CCP2M0                            00000000
CCP2M1                            00000001
CCP2M2                            00000002
CCP2M3                            00000003
CCP2SEL                           00000000
CCP3CON                           00000313
CCP3IE                            00000004
CCP3IF                            00000004
CCP3M0                            00000000
CCP3M1                            00000001
CCP3M2                            00000002
CCP3M3                            00000003
CCP3SEL                           00000000
CCPR1                             00000291
CCPR1H                            00000292
MPASM 5.86                        ESLAVE.ASM   11-21-2024  14:16:51         PAGE 22


SYMBOL TABLE
  LABEL                             VALUE 

CCPR1L                            00000291
CCPR2                             00000298
CCPR2H                            00000299
CCPR2L                            00000298
CCPR3                             00000311
CCPR3H                            00000312
CCPR3L                            00000311
CDAFVR0                           00000002
CDAFVR1                           00000003
CFGS                              00000006
CHS0                              00000002
CHS1                              00000003
CHS2                              00000004
CHS3                              00000005
CHS4                              00000006
CHSN0                             00000000
CHSN1                             00000001
CHSN2                             00000002
CHSN3                             00000003
CKE                               00000006
CKP                               00000004
CLKRCON                           0000051A
CLKRDC0                           00000003
CLKRDC1                           00000004
CLKRDIV0                          00000000
CLKRDIV1                          00000001
CLKRDIV2                          00000002
CLKREN                            00000007
CLKROE                            00000006
CLKRSLR                           00000005
CM1CON0                           00000111
CM1CON1                           00000112
CM2CON0                           00000113
CM2CON1                           00000114
CM3CON0                           0000011E
CM3CON1                           0000011F
CM4CON0                           0000011A
CM4CON1                           0000011B
CMOUT                             00000115
CREN                              00000004
CS2MIDI                           00000032
CSRC                              00000007
CURRENTPTH                        00000046
CURRENTPTL                        00000047
C_SHAD                            00000000
D2MIDI                            00000033
DAC1CON0                          00000118
DAC1CON1                          00000119
DAC1EN                            00000007
DAC1NSS                           00000000
DAC1OE1                           00000005
DAC1OE2                           00000004
DAC1PSS0                          00000002
MPASM 5.86                        ESLAVE.ASM   11-21-2024  14:16:51         PAGE 23


SYMBOL TABLE
  LABEL                             VALUE 

DAC1PSS1                          00000003
DAC1R0                            00000000
DAC1R1                            00000001
DAC1R2                            00000002
DAC1R3                            00000003
DAC1R4                            00000004
DAC1R5                            00000005
DAC1R6                            00000006
DAC1R7                            00000007
DAC2CON0                          00000591
DAC2CON1                          00000592
DAC2EN                            00000007
DAC2OE1                           00000005
DAC2OE2                           00000004
DAC2REF                           00000592
DAC3CON0                          00000593
DAC3CON1                          00000594
DAC3EN                            00000007
DAC3OE1                           00000005
DAC3OE2                           00000004
DAC3REF                           00000594
DAC4CON0                          00000595
DAC4CON1                          00000596
DAC4EN                            00000007
DAC4OE1                           00000005
DAC4OE2                           00000004
DAC4REF                           00000596
DACEN                             00000007
DACNSS                            00000000
DACOE0                            00000004
DACOE1                            00000005
DACPSS0                           00000002
DACPSS1                           00000003
DACR0                             00000000
DACR1                             00000001
DACR2                             00000002
DACR3                             00000003
DACR4                             00000004
DACR5                             00000005
DACR6                             00000006
DACR7                             00000007
DC                                00000001
DC1B0                             00000004
DC1B1                             00000005
DC2B0                             00000004
DC2B1                             00000005
DC3B0                             00000004
DC3B1                             00000005
DC_SHAD                           00000001
DELAY                             0000003B
DHEN                              00000000
DISABLE                           00000042
DONE                              00000001
MPASM 5.86                        ESLAVE.ASM   11-21-2024  14:16:51         PAGE 24


SYMBOL TABLE
  LABEL                             VALUE 

DRIVE                             00000000
DS2MIDI                           00000034
D_NOT_A                           00000005
E1MIDI                            00000023
E2MIDI                            00000035
EEADR                             00000191
EEADRH                            00000192
EEADRL                            00000191
EECON1                            00000195
EECON2                            00000196
EEDAT                             00000193
EEDATH                            00000194
EEDATL                            00000193
EEIE                              00000004
EEIF                              00000004
EEPGD                             00000007
EN                                00000007
EQUALS                            0000005C
EVALBYTE1                         00000028
EVALBYTE2                         0000001E
EVALBYTE3                         00000011
EVALLOW                           0000006D
F                                 00000001
F1MIDI                            00000024
F2MIDI                            00000036
FERR                              00000002
FIRE                              0000008C
FREE                              00000004
FS1MIDI                           00000025
FS2MIDI                           00000037
FSR0                              00000004
FSR0H                             00000005
FSR0H_SHAD                        00000FE9
FSR0L                             00000004
FSR0L_SHAD                        00000FE8
FSR1                              00000006
FSR1H                             00000007
FSR1H_SHAD                        00000FEB
FSR1L                             00000006
FSR1L_SHAD                        00000FEA
FVRCON                            00000117
FVREN                             00000007
FVRRDY                            00000006
G1MIDI                            00000026
G2MIDI                            00000038
GCEN                              00000007
GIE                               00000007
GO                                00000001
GO_NOT_DONE                       00000001
GS1MIDI                           00000027
GS2MIDI                           00000039
HFIOFL                            00000003
HFIOFR                            00000004
MPASM 5.86                        ESLAVE.ASM   11-21-2024  14:16:51         PAGE 25


SYMBOL TABLE
  LABEL                             VALUE 

HFIOFS                            00000000
HIGHESTLOOP                       00000005
HIGHLOOP                          00000015
HIGHOFFSET                        00000066
INDF0                             00000000
INDF1                             00000001
INLVLA                            0000038C
INLVLA0                           00000000
INLVLA1                           00000001
INLVLA2                           00000002
INLVLA3                           00000003
INLVLA4                           00000004
INLVLA5                           00000005
INLVLA6                           00000006
INLVLA7                           00000007
INLVLB                            0000038D
INLVLB0                           00000000
INLVLB1                           00000001
INLVLB2                           00000002
INLVLB3                           00000003
INLVLB4                           00000004
INLVLB5                           00000005
INLVLB6                           00000006
INLVLB7                           00000007
INLVLC                            0000038E
INLVLC0                           00000000
INLVLC1                           00000001
INLVLC2                           00000002
INLVLC3                           00000003
INLVLC4                           00000004
INLVLC5                           00000005
INLVLC6                           00000006
INLVLC7                           00000007
INLVLD                            0000038F
INLVLD0                           00000000
INLVLD1                           00000001
INLVLD2                           00000002
INLVLD3                           00000003
INLVLD4                           00000004
INLVLD5                           00000005
INLVLD6                           00000006
INLVLD7                           00000007
INLVLE                            00000390
INLVLE0                           00000000
INLVLE1                           00000001
INLVLE2                           00000002
INLVLE3                           00000003
INTCON                            0000000B
INTE                              00000004
INTEDG                            00000006
INTER                             0000008E
INTF                              00000001
IOCAF                             00000393
MPASM 5.86                        ESLAVE.ASM   11-21-2024  14:16:51         PAGE 26


SYMBOL TABLE
  LABEL                             VALUE 

IOCAF0                            00000000
IOCAF1                            00000001
IOCAF2                            00000002
IOCAF3                            00000003
IOCAF4                            00000004
IOCAF5                            00000005
IOCAF6                            00000006
IOCAF7                            00000007
IOCAN                             00000392
IOCAN0                            00000000
IOCAN1                            00000001
IOCAN2                            00000002
IOCAN3                            00000003
IOCAN4                            00000004
IOCAN5                            00000005
IOCAN6                            00000006
IOCAN7                            00000007
IOCAP                             00000391
IOCAP0                            00000000
IOCAP1                            00000001
IOCAP2                            00000002
IOCAP3                            00000003
IOCAP4                            00000004
IOCAP5                            00000005
IOCAP6                            00000006
IOCAP7                            00000007
IOCBF                             00000396
IOCBF0                            00000000
IOCBF1                            00000001
IOCBF2                            00000002
IOCBF3                            00000003
IOCBF4                            00000004
IOCBF5                            00000005
IOCBF6                            00000006
IOCBF7                            00000007
IOCBN                             00000395
IOCBN0                            00000000
IOCBN1                            00000001
IOCBN2                            00000002
IOCBN3                            00000003
IOCBN4                            00000004
IOCBN5                            00000005
IOCBN6                            00000006
IOCBN7                            00000007
IOCBP                             00000394
IOCBP0                            00000000
IOCBP1                            00000001
IOCBP2                            00000002
IOCBP3                            00000003
IOCBP4                            00000004
IOCBP5                            00000005
IOCBP6                            00000006
IOCBP7                            00000007
MPASM 5.86                        ESLAVE.ASM   11-21-2024  14:16:51         PAGE 27


SYMBOL TABLE
  LABEL                             VALUE 

IOCCF                             00000399
IOCCF0                            00000000
IOCCF1                            00000001
IOCCF2                            00000002
IOCCF3                            00000003
IOCCF4                            00000004
IOCCF5                            00000005
IOCCF6                            00000006
IOCCF7                            00000007
IOCCN                             00000398
IOCCN0                            00000000
IOCCN1                            00000001
IOCCN2                            00000002
IOCCN3                            00000003
IOCCN4                            00000004
IOCCN5                            00000005
IOCCN6                            00000006
IOCCN7                            00000007
IOCCP                             00000397
IOCCP0                            00000000
IOCCP1                            00000001
IOCCP2                            00000002
IOCCP3                            00000003
IOCCP4                            00000004
IOCCP5                            00000005
IOCCP6                            00000006
IOCCP7                            00000007
IOCEF                             0000039F
IOCEF3                            00000003
IOCEN                             0000039E
IOCEN3                            00000003
IOCEP                             0000039D
IOCEP3                            00000003
IOCIE                             00000003
IOCIF                             00000000
IRCF0                             00000003
IRCF1                             00000004
IRCF2                             00000005
IRCF3                             00000006
LATA                              0000010C
LATA0                             00000000
LATA1                             00000001
LATA2                             00000002
LATA3                             00000003
LATA4                             00000004
LATA5                             00000005
LATA6                             00000006
LATA7                             00000007
LATB                              0000010D
LATB0                             00000000
LATB1                             00000001
LATB2                             00000002
LATB3                             00000003
MPASM 5.86                        ESLAVE.ASM   11-21-2024  14:16:51         PAGE 28


SYMBOL TABLE
  LABEL                             VALUE 

LATB4                             00000004
LATB5                             00000005
LATB6                             00000006
LATB7                             00000007
LATC                              0000010E
LATC0                             00000000
LATC1                             00000001
LATC2                             00000002
LATC3                             00000003
LATC4                             00000004
LATC5                             00000005
LATC6                             00000006
LATC7                             00000007
LATD                              0000010F
LATD0                             00000000
LATD1                             00000001
LATD2                             00000002
LATD3                             00000003
LATD4                             00000004
LATD5                             00000005
LATD6                             00000006
LATD7                             00000007
LATE                              00000110
LATE0                             00000000
LATE1                             00000001
LATE2                             00000002
LFIOFR                            00000001
LOOP0                             00000023
LOWERLOOP1                        0000002C
LOWESTLOOP                        00000008
LOWLOOP                           00000017
LOWOFFSET                         00000064
LWLO                              00000005
MAIN                              00000051
MC1OUT                            00000000
MC2OUT                            00000001
MC3OUT                            00000002
MC4OUT                            00000003
MFIOFR                            00000002
MIDDLELOOP                        00000007
MIDESTLOOP                        00000006
MIDLOOP                           00000016
MIDOFFSET                         00000065
MSK0                              00000000
MSK1                              00000001
MSK2                              00000002
MSK3                              00000003
MSK4                              00000004
MSK5                              00000005
MSK6                              00000006
MSK7                              00000007
NEXTPTH                           00000049
NEXTPTL                           00000050
MPASM 5.86                        ESLAVE.ASM   11-21-2024  14:16:51         PAGE 29


SYMBOL TABLE
  LABEL                             VALUE 

NOT_BOR                           00000000
NOT_PD                            00000003
NOT_POR                           00000001
NOT_RI                            00000002
NOT_RMCLR                         00000003
NOT_RWDT                          00000004
NOT_T1SYNC                        00000002
NOT_TO                            00000004
NOT_WPUEN                         00000007
ODCONA                            0000028C
ODCONA0                           00000000
ODCONA1                           00000001
ODCONA2                           00000002
ODCONA3                           00000003
ODCONA4                           00000004
ODCONA5                           00000005
ODCONA6                           00000006
ODCONA7                           00000007
ODCONB                            0000028D
ODCONB0                           00000000
ODCONB1                           00000001
ODCONB2                           00000002
ODCONB3                           00000003
ODCONB4                           00000004
ODCONB5                           00000005
ODCONB6                           00000006
ODCONB7                           00000007
ODCONC                            0000028E
ODCONC0                           00000000
ODCONC1                           00000001
ODCONC2                           00000002
ODCONC3                           00000003
ODCONC4                           00000004
ODCONC5                           00000005
ODCONC6                           00000006
ODCONC7                           00000007
ODCOND                            0000028F
ODCOND0                           00000000
ODCOND1                           00000001
ODCOND2                           00000002
ODCOND3                           00000003
ODCOND4                           00000004
ODCOND5                           00000005
ODCOND6                           00000006
ODCOND7                           00000007
ODCONE                            00000290
ODCONE0                           00000000
ODCONE1                           00000001
ODCONE2                           00000002
OERR                              00000001
OPA1CON                           00000511
OPA1EN                            00000007
OPA1PCH0                          00000000
MPASM 5.86                        ESLAVE.ASM   11-21-2024  14:16:51         PAGE 30


SYMBOL TABLE
  LABEL                             VALUE 

OPA1PCH1                          00000001
OPA1PCH2                          00000002
OPA1SP                            00000006
OPA2CON                           00000513
OPA2EN                            00000007
OPA2PCH0                          00000000
OPA2PCH1                          00000001
OPA2PCH2                          00000002
OPA2SP                            00000006
OPA3CON                           00000515
OPA3EN                            00000007
OPA3PCH0                          00000000
OPA3PCH1                          00000001
OPA3PCH2                          00000002
OPA3SP                            00000006
OPTION_REG                        00000095
OSCCON                            00000099
OSCSTAT                           0000009A
OSCTUNE                           00000098
OSFIE                             00000007
OSFIF                             00000007
OSTS                              00000005
P                                 00000004
P1ARSEN                           00000005
P1ASDEN                           00000006
P1ASDLA                           00000000
P1ASDLB                           00000001
P1ASDLC                           00000002
P1ASDLD                           00000003
P1ASDLE                           00000004
P1ASDLF                           00000005
P1ASDOV                           00000000
P1ASDSC1                          00000001
P1ASDSC2                          00000002
P1ASDSC3                          00000003
P1ASDSC4                          00000004
P1ASDSIN                          00000007
P1ASE                             00000007
P1CPRE0                           00000004
P1CPRE1                           00000005
P1CSRC0                           00000000
P1CSRC1                           00000001
P1DBFE                            00000005
P1DBRE                            00000004
P1DCPOL                           00000005
P1DCSC1                           00000001
P1DCSC2                           00000002
P1DCSC3                           00000003
P1DCSC4                           00000004
P1DCSIN                           00000007
P1DCST                            00000000
P1FEBM0                           00000004
P1FEBM1                           00000005
MPASM 5.86                        ESLAVE.ASM   11-21-2024  14:16:51         PAGE 31


SYMBOL TABLE
  LABEL                             VALUE 

P1FEBSC1                          00000001
P1FEBSC2                          00000002
P1FEBSC3                          00000003
P1FEBSC4                          00000004
P1FEBSIN                          00000007
P1HSMEN                           00000000
P1INPOL                           00000006
P1LSMEN                           00000001
P1MDLBIT                          00000005
P1MDLEN                           00000007
P1MDLPOL                          00000006
P1MODE0                           00000000
P1MODE1                           00000001
P1MODE2                           00000002
P1MODE3                           00000003
P1MSRC0                           00000000
P1MSRC1                           00000001
P1MSRC2                           00000002
P1MSRC3                           00000003
P1OEA                             00000000
P1OEB                             00000001
P1OEC                             00000002
P1OED                             00000003
P1OEE                             00000004
P1OEF                             00000005
P1PHSC1                           00000001
P1PHSC2                           00000002
P1PHSC3                           00000003
P1PHSC4                           00000004
P1PHSIN                           00000007
P1PHST                            00000000
P1POFST                           00000007
P1POLA                            00000000
P1POLB                            00000001
P1POLC                            00000002
P1POLD                            00000003
P1POLE                            00000004
P1POLF                            00000005
P1PRPOL                           00000006
P1PRSC1                           00000001
P1PRSC2                           00000002
P1PRSC3                           00000003
P1PRSC4                           00000004
P1PRSIN                           00000007
P1PRST                            00000000
P1REBM0                           00000000
P1REBM1                           00000001
P1REBSC1                          00000001
P1REBSC2                          00000002
P1REBSC3                          00000003
P1REBSC4                          00000004
P1REBSIN                          00000007
P1SSYNC                           00000007
MPASM 5.86                        ESLAVE.ASM   11-21-2024  14:16:51         PAGE 32


SYMBOL TABLE
  LABEL                             VALUE 

P1STRA                            00000000
P1STRB                            00000001
P1STRC                            00000002
P1STRD                            00000003
P1STRE                            00000004
P1STRF                            00000005
P1SYNC0                           00000000
P1SYNC1                           00000001
P1SYNC2                           00000002
P1TDCIE                           00000005
P1TDCIF                           00000001
P1TOVIE                           00000007
P1TOVIF                           00000003
P1TPHIE                           00000006
P1TPHIF                           00000002
P1TPRIE                           00000004
P1TPRIF                           00000000
P2ARSEN                           00000005
P2ASDEN                           00000006
P2ASDLA                           00000000
P2ASDLB                           00000001
P2ASDOV                           00000000
P2ASDSC1                          00000001
P2ASDSC2                          00000002
P2ASDSC3                          00000003
P2ASDSC4                          00000004
P2ASDSIN                          00000007
P2ASE                             00000007
P2CPRE0                           00000004
P2CPRE1                           00000005
P2CSRC0                           00000000
P2CSRC1                           00000001
P2DBFE                            00000005
P2DBRE                            00000004
P2DCPOL                           00000005
P2DCSC1                           00000001
P2DCSC2                           00000002
P2DCSC3                           00000003
P2DCSC4                           00000004
P2DCSIN                           00000007
P2DCST                            00000000
P2FEBM0                           00000004
P2FEBM1                           00000005
P2FEBSC1                          00000001
P2FEBSC2                          00000002
P2FEBSC3                          00000003
P2FEBSC4                          00000004
P2FEBSIN                          00000007
P2HSMEN                           00000000
P2INPOL                           00000006
P2LSMEN                           00000001
P2MDLBIT                          00000005
P2MDLEN                           00000007
MPASM 5.86                        ESLAVE.ASM   11-21-2024  14:16:51         PAGE 33


SYMBOL TABLE
  LABEL                             VALUE 

P2MDLPOL                          00000006
P2MODE0                           00000000
P2MODE1                           00000001
P2MODE2                           00000002
P2MODE3                           00000003
P2MSRC0                           00000000
P2MSRC1                           00000001
P2MSRC2                           00000002
P2MSRC3                           00000003
P2OEA                             00000000
P2OEB                             00000001
P2PHSC1                           00000001
P2PHSC2                           00000002
P2PHSC3                           00000003
P2PHSC4                           00000004
P2PHSIN                           00000007
P2PHST                            00000000
P2POFST                           00000007
P2POLA                            00000000
P2POLB                            00000001
P2PRPOL                           00000006
P2PRSC1                           00000001
P2PRSC2                           00000002
P2PRSC3                           00000003
P2PRSC4                           00000004
P2PRSIN                           00000007
P2PRST                            00000000
P2REBM0                           00000000
P2REBM1                           00000001
P2REBSC1                          00000001
P2REBSC2                          00000002
P2REBSC3                          00000003
P2REBSC4                          00000004
P2REBSIN                          00000007
P2SSYNC                           00000007
P2STRA                            00000000
P2STRB                            00000001
P2SYNC0                           00000000
P2SYNC1                           00000001
P2SYNC2                           00000002
P2TDCIE                           00000005
P2TDCIF                           00000001
P2TOVIE                           00000007
P2TOVIF                           00000003
P2TPHIE                           00000006
P2TPHIF                           00000002
P2TPRIE                           00000004
P2TPRIF                           00000000
P3ARSEN                           00000005
P3ASDEN                           00000006
P3ASDLA                           00000000
P3ASDLB                           00000001
P3ASDLC                           00000002
MPASM 5.86                        ESLAVE.ASM   11-21-2024  14:16:51         PAGE 34


SYMBOL TABLE
  LABEL                             VALUE 

P3ASDLD                           00000003
P3ASDLE                           00000004
P3ASDLF                           00000005
P3ASDOV                           00000000
P3ASDSC1                          00000001
P3ASDSC2                          00000002
P3ASDSC3                          00000003
P3ASDSC4                          00000004
P3ASDSIN                          00000007
P3ASE                             00000007
P3CPRE0                           00000004
P3CPRE1                           00000005
P3CSRC0                           00000000
P3CSRC1                           00000001
P3DBFE                            00000005
P3DBRE                            00000004
P3DCPOL                           00000005
P3DCSC1                           00000001
P3DCSC2                           00000002
P3DCSC3                           00000003
P3DCSC4                           00000004
P3DCSIN                           00000007
P3DCST                            00000000
P3FEBM0                           00000004
P3FEBM1                           00000005
P3FEBSC1                          00000001
P3FEBSC2                          00000002
P3FEBSC3                          00000003
P3FEBSC4                          00000004
P3FEBSIN                          00000007
P3HSMEN                           00000000
P3INPOL                           00000006
P3LSMEN                           00000001
P3MDLBIT                          00000005
P3MDLEN                           00000007
P3MDLPOL                          00000006
P3MODE0                           00000000
P3MODE1                           00000001
P3MODE2                           00000002
P3MODE3                           00000003
P3MSRC0                           00000000
P3MSRC1                           00000001
P3MSRC2                           00000002
P3MSRC3                           00000003
P3OEA                             00000000
P3OEB                             00000001
P3OEC                             00000002
P3OED                             00000003
P3OEE                             00000004
P3OEF                             00000005
P3PHSC1                           00000001
P3PHSC2                           00000002
P3PHSC3                           00000003
MPASM 5.86                        ESLAVE.ASM   11-21-2024  14:16:51         PAGE 35


SYMBOL TABLE
  LABEL                             VALUE 

P3PHSC4                           00000004
P3PHSIN                           00000007
P3PHST                            00000000
P3POFST                           00000007
P3POLA                            00000000
P3POLB                            00000001
P3POLC                            00000002
P3POLD                            00000003
P3POLE                            00000004
P3POLF                            00000005
P3PRPOL                           00000006
P3PRSC1                           00000001
P3PRSC2                           00000002
P3PRSC3                           00000003
P3PRSC4                           00000004
P3PRSIN                           00000007
P3PRST                            00000000
P3REBM0                           00000000
P3REBM1                           00000001
P3REBSC1                          00000001
P3REBSC2                          00000002
P3REBSC3                          00000003
P3REBSC4                          00000004
P3REBSIN                          00000007
P3SSYNC                           00000007
P3STRA                            00000000
P3STRB                            00000001
P3STRC                            00000002
P3STRD                            00000003
P3STRE                            00000004
P3STRF                            00000005
P3SYNC0                           00000000
P3SYNC1                           00000001
P3SYNC2                           00000002
P3TDCIE                           00000005
P3TDCIF                           00000001
P3TOVIE                           00000007
P3TOVIF                           00000003
P3TPHIE                           00000006
P3TPHIF                           00000002
P3TPRIE                           00000004
P3TPRIF                           00000000
P4ARSEN                           00000005
P4ASDEN                           00000006
P4ASDLA                           00000000
P4ASDLB                           00000001
P4ASDOV                           00000000
P4ASDSC1                          00000001
P4ASDSC2                          00000002
P4ASDSC3                          00000003
P4ASDSC4                          00000004
P4ASDSIN                          00000007
P4ASE                             00000007
MPASM 5.86                        ESLAVE.ASM   11-21-2024  14:16:51         PAGE 36


SYMBOL TABLE
  LABEL                             VALUE 

P4CPRE0                           00000004
P4CPRE1                           00000005
P4CSRC0                           00000000
P4CSRC1                           00000001
P4DBFE                            00000005
P4DBRE                            00000004
P4DCPOL                           00000005
P4DCSC1                           00000001
P4DCSC2                           00000002
P4DCSC3                           00000003
P4DCSC4                           00000004
P4DCSIN                           00000007
P4DCST                            00000000
P4FEBM0                           00000004
P4FEBM1                           00000005
P4FEBSC1                          00000001
P4FEBSC2                          00000002
P4FEBSC3                          00000003
P4FEBSC4                          00000004
P4FEBSIN                          00000007
P4HSMEN                           00000000
P4INPOL                           00000006
P4LSMEN                           00000001
P4MDLBIT                          00000005
P4MDLEN                           00000007
P4MDLPOL                          00000006
P4MODE0                           00000000
P4MODE1                           00000001
P4MODE2                           00000002
P4MODE3                           00000003
P4MSRC0                           00000000
P4MSRC1                           00000001
P4MSRC2                           00000002
P4MSRC3                           00000003
P4OEA                             00000000
P4OEB                             00000001
P4PHSC1                           00000001
P4PHSC2                           00000002
P4PHSC3                           00000003
P4PHSC4                           00000004
P4PHSIN                           00000007
P4PHST                            00000000
P4POFST                           00000007
P4POLA                            00000000
P4POLB                            00000001
P4PRPOL                           00000006
P4PRSC1                           00000001
P4PRSC2                           00000002
P4PRSC3                           00000003
P4PRSC4                           00000004
P4PRSIN                           00000007
P4PRST                            00000000
P4REBM0                           00000000
MPASM 5.86                        ESLAVE.ASM   11-21-2024  14:16:51         PAGE 37


SYMBOL TABLE
  LABEL                             VALUE 

P4REBM1                           00000001
P4REBSC1                          00000001
P4REBSC2                          00000002
P4REBSC3                          00000003
P4REBSC4                          00000004
P4REBSIN                          00000007
P4SSYNC                           00000007
P4STRA                            00000000
P4STRB                            00000001
P4SYNC0                           00000000
P4SYNC1                           00000001
P4SYNC2                           00000002
P4TDCIE                           00000005
P4TDCIF                           00000001
P4TOVIE                           00000007
P4TOVIF                           00000003
P4TPHIE                           00000006
P4TPHIF                           00000002
P4TPRIE                           00000004
P4TPRIF                           00000000
PCH0                              00000000
PCH1                              00000001
PCH2                              00000002
PCIE                              00000006
PCL                               00000002
PCLATH                            0000000A
PCLATH_SHAD                       00000FE7
PCON                              00000096
PEIE                              00000006
PEN                               00000002
PIE1                              00000091
PIE2                              00000092
PIE3                              00000093
PIE4                              00000094
PIR1                              00000011
PIR2                              00000012
PIR3                              00000013
PIR4                              00000014
PITCH                             00000022
PLLR                              00000006
PMSC3TIE                          00000006
POPOUT                            00000000
PORTA                             0000000C
PORTB                             0000000D
PORTC                             0000000E
PORTD                             0000000F
PORTE                             00000010
PR2                               0000001B
PS0                               00000000
PS1                               00000001
PS2                               00000002
PSA                               00000003
PSMC1ASDC                         00000E9D
MPASM 5.86                        ESLAVE.ASM   11-21-2024  14:16:51         PAGE 38


SYMBOL TABLE
  LABEL                             VALUE 

PSMC1ASDL                         00000E9E
PSMC1ASDS                         00000E9F
PSMC1BLKF                         00000EAC
PSMC1BLKF0                        00000000
PSMC1BLKF1                        00000001
PSMC1BLKF2                        00000002
PSMC1BLKF3                        00000003
PSMC1BLKF4                        00000004
PSMC1BLKF5                        00000005
PSMC1BLKF6                        00000006
PSMC1BLKF7                        00000007
PSMC1BLKR                         00000EAB
PSMC1BLKR0                        00000000
PSMC1BLKR1                        00000001
PSMC1BLKR2                        00000002
PSMC1BLKR3                        00000003
PSMC1BLKR4                        00000004
PSMC1BLKR5                        00000005
PSMC1BLKR6                        00000006
PSMC1BLKR7                        00000007
PSMC1BLNK                         00000E97
PSMC1CLK                          00000E94
PSMC1CON                          00000E91
PSMC1DBF                          00000EAA
PSMC1DBF0                         00000000
PSMC1DBF1                         00000001
PSMC1DBF2                         00000002
PSMC1DBF3                         00000003
PSMC1DBF4                         00000004
PSMC1DBF5                         00000005
PSMC1DBF6                         00000006
PSMC1DBF7                         00000007
PSMC1DBR                          00000EA9
PSMC1DBR0                         00000000
PSMC1DBR1                         00000001
PSMC1DBR2                         00000002
PSMC1DBR3                         00000003
PSMC1DBR4                         00000004
PSMC1DBR5                         00000005
PSMC1DBR6                         00000006
PSMC1DBR7                         00000007
PSMC1DC                           00000EA3
PSMC1DC0                          00000000
PSMC1DC1                          00000001
PSMC1DC10                         00000002
PSMC1DC11                         00000003
PSMC1DC12                         00000004
PSMC1DC13                         00000005
PSMC1DC14                         00000006
PSMC1DC15                         00000007
PSMC1DC2                          00000002
PSMC1DC3                          00000003
PSMC1DC4                          00000004
MPASM 5.86                        ESLAVE.ASM   11-21-2024  14:16:51         PAGE 39


SYMBOL TABLE
  LABEL                             VALUE 

PSMC1DC5                          00000005
PSMC1DC6                          00000006
PSMC1DC7                          00000007
PSMC1DC8                          00000000
PSMC1DC9                          00000001
PSMC1DCH                          00000EA4
PSMC1DCL                          00000EA3
PSMC1DCS                          00000E9B
PSMC1EN                           00000007
PSMC1FEBS                         00000E99
PSMC1FFA                          00000EAD
PSMC1FFA0                         00000000
PSMC1FFA1                         00000001
PSMC1FFA2                         00000002
PSMC1FFA3                         00000003
PSMC1INT                          00000EA0
PSMC1LD                           00000006
PSMC1MDL                          00000E92
PSMC1OEN                          00000E95
PSMC1PH                           00000EA1
PSMC1PH0                          00000000
PSMC1PH1                          00000001
PSMC1PH10                         00000002
PSMC1PH11                         00000003
PSMC1PH12                         00000004
PSMC1PH13                         00000005
PSMC1PH14                         00000006
PSMC1PH15                         00000007
PSMC1PH2                          00000002
PSMC1PH3                          00000003
PSMC1PH4                          00000004
PSMC1PH5                          00000005
PSMC1PH6                          00000006
PSMC1PH7                          00000007
PSMC1PH8                          00000000
PSMC1PH9                          00000001
PSMC1PHH                          00000EA2
PSMC1PHL                          00000EA1
PSMC1PHS                          00000E9A
PSMC1POL                          00000E96
PSMC1PR                           00000EA5
PSMC1PR0                          00000000
PSMC1PR1                          00000001
PSMC1PR10                         00000002
PSMC1PR11                         00000003
PSMC1PR12                         00000004
PSMC1PR13                         00000005
PSMC1PR14                         00000006
PSMC1PR15                         00000007
PSMC1PR2                          00000002
PSMC1PR3                          00000003
PSMC1PR4                          00000004
PSMC1PR5                          00000005
MPASM 5.86                        ESLAVE.ASM   11-21-2024  14:16:51         PAGE 40


SYMBOL TABLE
  LABEL                             VALUE 

PSMC1PR6                          00000006
PSMC1PR7                          00000007
PSMC1PR8                          00000000
PSMC1PR9                          00000001
PSMC1PRH                          00000EA6
PSMC1PRL                          00000EA5
PSMC1PRS                          00000E9C
PSMC1REBS                         00000E98
PSMC1SIE                          00000000
PSMC1SIF                          00000000
PSMC1STR0                         00000EAE
PSMC1STR1                         00000EAF
PSMC1SYNC                         00000E93
PSMC1TIE                          00000004
PSMC1TIF                          00000004
PSMC1TMR                          00000EA7
PSMC1TMR0                         00000000
PSMC1TMR1                         00000001
PSMC1TMR10                        00000002
PSMC1TMR11                        00000003
PSMC1TMR12                        00000004
PSMC1TMR13                        00000005
PSMC1TMR14                        00000006
PSMC1TMR15                        00000007
PSMC1TMR2                         00000002
PSMC1TMR3                         00000003
PSMC1TMR4                         00000004
PSMC1TMR5                         00000005
PSMC1TMR6                         00000006
PSMC1TMR7                         00000007
PSMC1TMR8                         00000000
PSMC1TMR9                         00000001
PSMC1TMRH                         00000EA8
PSMC1TMRL                         00000EA7
PSMC2ASDC                         00000EBD
PSMC2ASDL                         00000EBE
PSMC2ASDS                         00000EBF
PSMC2BLKF                         00000ECC
PSMC2BLKF0                        00000000
PSMC2BLKF1                        00000001
PSMC2BLKF2                        00000002
PSMC2BLKF3                        00000003
PSMC2BLKF4                        00000004
PSMC2BLKF5                        00000005
PSMC2BLKF6                        00000006
PSMC2BLKF7                        00000007
PSMC2BLKR                         00000ECB
PSMC2BLKR0                        00000000
PSMC2BLKR1                        00000001
PSMC2BLKR2                        00000002
PSMC2BLKR3                        00000003
PSMC2BLKR4                        00000004
PSMC2BLKR5                        00000005
MPASM 5.86                        ESLAVE.ASM   11-21-2024  14:16:51         PAGE 41


SYMBOL TABLE
  LABEL                             VALUE 

PSMC2BLKR6                        00000006
PSMC2BLKR7                        00000007
PSMC2BLNK                         00000EB7
PSMC2CLK                          00000EB4
PSMC2CON                          00000EB1
PSMC2DBF                          00000ECA
PSMC2DBF0                         00000000
PSMC2DBF1                         00000001
PSMC2DBF2                         00000002
PSMC2DBF3                         00000003
PSMC2DBF4                         00000004
PSMC2DBF5                         00000005
PSMC2DBF6                         00000006
PSMC2DBF7                         00000007
PSMC2DBR                          00000EC9
PSMC2DBR0                         00000000
PSMC2DBR1                         00000001
PSMC2DBR2                         00000002
PSMC2DBR3                         00000003
PSMC2DBR4                         00000004
PSMC2DBR5                         00000005
PSMC2DBR6                         00000006
PSMC2DBR7                         00000007
PSMC2DC                           00000EC3
PSMC2DC0                          00000000
PSMC2DC1                          00000001
PSMC2DC10                         00000002
PSMC2DC11                         00000003
PSMC2DC12                         00000004
PSMC2DC13                         00000005
PSMC2DC14                         00000006
PSMC2DC15                         00000007
PSMC2DC2                          00000002
PSMC2DC3                          00000003
PSMC2DC4                          00000004
PSMC2DC5                          00000005
PSMC2DC6                          00000006
PSMC2DC7                          00000007
PSMC2DC8                          00000000
PSMC2DC9                          00000001
PSMC2DCH                          00000EC4
PSMC2DCL                          00000EC3
PSMC2DCS                          00000EBB
PSMC2EN                           00000007
PSMC2FEBS                         00000EB9
PSMC2FFA                          00000ECD
PSMC2FFA0                         00000000
PSMC2FFA1                         00000001
PSMC2FFA2                         00000002
PSMC2FFA3                         00000003
PSMC2INT                          00000EC0
PSMC2LD                           00000006
PSMC2MDL                          00000EB2
MPASM 5.86                        ESLAVE.ASM   11-21-2024  14:16:51         PAGE 42


SYMBOL TABLE
  LABEL                             VALUE 

PSMC2OEN                          00000EB5
PSMC2PH                           00000EC1
PSMC2PH0                          00000000
PSMC2PH1                          00000001
PSMC2PH10                         00000002
PSMC2PH11                         00000003
PSMC2PH12                         00000004
PSMC2PH13                         00000005
PSMC2PH14                         00000006
PSMC2PH15                         00000007
PSMC2PH2                          00000002
PSMC2PH3                          00000003
PSMC2PH4                          00000004
PSMC2PH5                          00000005
PSMC2PH6                          00000006
PSMC2PH7                          00000007
PSMC2PH8                          00000000
PSMC2PH9                          00000001
PSMC2PHH                          00000EC2
PSMC2PHL                          00000EC1
PSMC2PHS                          00000EBA
PSMC2POL                          00000EB6
PSMC2PR                           00000EC5
PSMC2PR0                          00000000
PSMC2PR1                          00000001
PSMC2PR10                         00000002
PSMC2PR11                         00000003
PSMC2PR12                         00000004
PSMC2PR13                         00000005
PSMC2PR14                         00000006
PSMC2PR15                         00000007
PSMC2PR2                          00000002
PSMC2PR3                          00000003
PSMC2PR4                          00000004
PSMC2PR5                          00000005
PSMC2PR6                          00000006
PSMC2PR7                          00000007
PSMC2PR8                          00000000
PSMC2PR9                          00000001
PSMC2PRH                          00000EC6
PSMC2PRL                          00000EC5
PSMC2PRS                          00000EBC
PSMC2REBS                         00000EB8
PSMC2SIE                          00000001
PSMC2SIF                          00000001
PSMC2STR0                         00000ECE
PSMC2STR1                         00000ECF
PSMC2SYNC                         00000EB3
PSMC2TIE                          00000005
PSMC2TIF                          00000005
PSMC2TMR                          00000EC7
PSMC2TMR0                         00000000
PSMC2TMR1                         00000001
MPASM 5.86                        ESLAVE.ASM   11-21-2024  14:16:51         PAGE 43


SYMBOL TABLE
  LABEL                             VALUE 

PSMC2TMR10                        00000002
PSMC2TMR11                        00000003
PSMC2TMR12                        00000004
PSMC2TMR13                        00000005
PSMC2TMR14                        00000006
PSMC2TMR15                        00000007
PSMC2TMR2                         00000002
PSMC2TMR3                         00000003
PSMC2TMR4                         00000004
PSMC2TMR5                         00000005
PSMC2TMR6                         00000006
PSMC2TMR7                         00000007
PSMC2TMR8                         00000000
PSMC2TMR9                         00000001
PSMC2TMRH                         00000EC8
PSMC2TMRL                         00000EC7
PSMC3ASDC                         00000EDD
PSMC3ASDL                         00000EDE
PSMC3ASDS                         00000EDF
PSMC3BLKF                         00000EEC
PSMC3BLKF0                        00000000
PSMC3BLKF1                        00000001
PSMC3BLKF2                        00000002
PSMC3BLKF3                        00000003
PSMC3BLKF4                        00000004
PSMC3BLKF5                        00000005
PSMC3BLKF6                        00000006
PSMC3BLKF7                        00000007
PSMC3BLKR                         00000EEB
PSMC3BLKR0                        00000000
PSMC3BLKR1                        00000001
PSMC3BLKR2                        00000002
PSMC3BLKR3                        00000003
PSMC3BLKR4                        00000004
PSMC3BLKR5                        00000005
PSMC3BLKR6                        00000006
PSMC3BLKR7                        00000007
PSMC3BLNK                         00000ED7
PSMC3CLK                          00000ED4
PSMC3CON                          00000ED1
PSMC3DBF                          00000EEA
PSMC3DBF0                         00000000
PSMC3DBF1                         00000001
PSMC3DBF2                         00000002
PSMC3DBF3                         00000003
PSMC3DBF4                         00000004
PSMC3DBF5                         00000005
PSMC3DBF6                         00000006
PSMC3DBF7                         00000007
PSMC3DBR                          00000EE9
PSMC3DBR0                         00000000
PSMC3DBR1                         00000001
PSMC3DBR2                         00000002
MPASM 5.86                        ESLAVE.ASM   11-21-2024  14:16:51         PAGE 44


SYMBOL TABLE
  LABEL                             VALUE 

PSMC3DBR3                         00000003
PSMC3DBR4                         00000004
PSMC3DBR5                         00000005
PSMC3DBR6                         00000006
PSMC3DBR7                         00000007
PSMC3DC                           00000EE3
PSMC3DC0                          00000000
PSMC3DC1                          00000001
PSMC3DC10                         00000002
PSMC3DC11                         00000003
PSMC3DC12                         00000004
PSMC3DC13                         00000005
PSMC3DC14                         00000006
PSMC3DC15                         00000007
PSMC3DC2                          00000002
PSMC3DC3                          00000003
PSMC3DC4                          00000004
PSMC3DC5                          00000005
PSMC3DC6                          00000006
PSMC3DC7                          00000007
PSMC3DC8                          00000000
PSMC3DC9                          00000001
PSMC3DCH                          00000EE4
PSMC3DCL                          00000EE3
PSMC3DCS                          00000EDB
PSMC3EN                           00000007
PSMC3FEBS                         00000ED9
PSMC3FFA                          00000EED
PSMC3FFA0                         00000000
PSMC3FFA1                         00000001
PSMC3FFA2                         00000002
PSMC3FFA3                         00000003
PSMC3INT                          00000EE0
PSMC3LD                           00000006
PSMC3MDL                          00000ED2
PSMC3OEN                          00000ED5
PSMC3PH                           00000EE1
PSMC3PH0                          00000000
PSMC3PH1                          00000001
PSMC3PH10                         00000002
PSMC3PH11                         00000003
PSMC3PH12                         00000004
PSMC3PH13                         00000005
PSMC3PH14                         00000006
PSMC3PH15                         00000007
PSMC3PH2                          00000002
PSMC3PH3                          00000003
PSMC3PH4                          00000004
PSMC3PH5                          00000005
PSMC3PH6                          00000006
PSMC3PH7                          00000007
PSMC3PH8                          00000000
PSMC3PH9                          00000001
MPASM 5.86                        ESLAVE.ASM   11-21-2024  14:16:51         PAGE 45


SYMBOL TABLE
  LABEL                             VALUE 

PSMC3PHH                          00000EE2
PSMC3PHL                          00000EE1
PSMC3PHS                          00000EDA
PSMC3POL                          00000ED6
PSMC3PR                           00000EE5
PSMC3PR0                          00000000
PSMC3PR1                          00000001
PSMC3PR10                         00000002
PSMC3PR11                         00000003
PSMC3PR12                         00000004
PSMC3PR13                         00000005
PSMC3PR14                         00000006
PSMC3PR15                         00000007
PSMC3PR2                          00000002
PSMC3PR3                          00000003
PSMC3PR4                          00000004
PSMC3PR5                          00000005
PSMC3PR6                          00000006
PSMC3PR7                          00000007
PSMC3PR8                          00000000
PSMC3PR9                          00000001
PSMC3PRH                          00000EE6
PSMC3PRL                          00000EE5
PSMC3PRS                          00000EDC
PSMC3REBS                         00000ED8
PSMC3SIE                          00000002
PSMC3SIF                          00000002
PSMC3STR0                         00000EEE
PSMC3STR1                         00000EEF
PSMC3SYNC                         00000ED3
PSMC3TIE                          00000006
PSMC3TIF                          00000006
PSMC3TMR                          00000EE7
PSMC3TMR0                         00000000
PSMC3TMR1                         00000001
PSMC3TMR10                        00000002
PSMC3TMR11                        00000003
PSMC3TMR12                        00000004
PSMC3TMR13                        00000005
PSMC3TMR14                        00000006
PSMC3TMR15                        00000007
PSMC3TMR2                         00000002
PSMC3TMR3                         00000003
PSMC3TMR4                         00000004
PSMC3TMR5                         00000005
PSMC3TMR6                         00000006
PSMC3TMR7                         00000007
PSMC3TMR8                         00000000
PSMC3TMR9                         00000001
PSMC3TMRH                         00000EE8
PSMC3TMRL                         00000EE7
PSMC4ASDC                         00000F1D
PSMC4ASDL                         00000F1E
MPASM 5.86                        ESLAVE.ASM   11-21-2024  14:16:51         PAGE 46


SYMBOL TABLE
  LABEL                             VALUE 

PSMC4ASDS                         00000F1F
PSMC4BLKF                         00000F2C
PSMC4BLKF0                        00000000
PSMC4BLKF1                        00000001
PSMC4BLKF2                        00000002
PSMC4BLKF3                        00000003
PSMC4BLKF4                        00000004
PSMC4BLKF5                        00000005
PSMC4BLKF6                        00000006
PSMC4BLKF7                        00000007
PSMC4BLKR                         00000F2B
PSMC4BLKR0                        00000000
PSMC4BLKR1                        00000001
PSMC4BLKR2                        00000002
PSMC4BLKR3                        00000003
PSMC4BLKR4                        00000004
PSMC4BLKR5                        00000005
PSMC4BLKR6                        00000006
PSMC4BLKR7                        00000007
PSMC4BLNK                         00000F17
PSMC4CLK                          00000F14
PSMC4CON                          00000F11
PSMC4DBF                          00000F2A
PSMC4DBF0                         00000000
PSMC4DBF1                         00000001
PSMC4DBF2                         00000002
PSMC4DBF3                         00000003
PSMC4DBF4                         00000004
PSMC4DBF5                         00000005
PSMC4DBF6                         00000006
PSMC4DBF7                         00000007
PSMC4DBR                          00000F29
PSMC4DBR0                         00000000
PSMC4DBR1                         00000001
PSMC4DBR2                         00000002
PSMC4DBR3                         00000003
PSMC4DBR4                         00000004
PSMC4DBR5                         00000005
PSMC4DBR6                         00000006
PSMC4DBR7                         00000007
PSMC4DC                           00000F23
PSMC4DC0                          00000000
PSMC4DC1                          00000001
PSMC4DC10                         00000002
PSMC4DC11                         00000003
PSMC4DC12                         00000004
PSMC4DC13                         00000005
PSMC4DC14                         00000006
PSMC4DC15                         00000007
PSMC4DC2                          00000002
PSMC4DC3                          00000003
PSMC4DC4                          00000004
PSMC4DC5                          00000005
MPASM 5.86                        ESLAVE.ASM   11-21-2024  14:16:51         PAGE 47


SYMBOL TABLE
  LABEL                             VALUE 

PSMC4DC6                          00000006
PSMC4DC7                          00000007
PSMC4DC8                          00000000
PSMC4DC9                          00000001
PSMC4DCH                          00000F24
PSMC4DCL                          00000F23
PSMC4DCS                          00000F1B
PSMC4EN                           00000007
PSMC4FEBS                         00000F19
PSMC4FFA                          00000F2D
PSMC4FFA0                         00000000
PSMC4FFA1                         00000001
PSMC4FFA2                         00000002
PSMC4FFA3                         00000003
PSMC4INT                          00000F20
PSMC4LD                           00000006
PSMC4MDL                          00000F12
PSMC4OEN                          00000F15
PSMC4PH                           00000F21
PSMC4PH0                          00000000
PSMC4PH1                          00000001
PSMC4PH10                         00000002
PSMC4PH11                         00000003
PSMC4PH12                         00000004
PSMC4PH13                         00000005
PSMC4PH14                         00000006
PSMC4PH15                         00000007
PSMC4PH2                          00000002
PSMC4PH3                          00000003
PSMC4PH4                          00000004
PSMC4PH5                          00000005
PSMC4PH6                          00000006
PSMC4PH7                          00000007
PSMC4PH8                          00000000
PSMC4PH9                          00000001
PSMC4PHH                          00000F22
PSMC4PHL                          00000F21
PSMC4PHS                          00000F1A
PSMC4POL                          00000F16
PSMC4PR                           00000F25
PSMC4PR0                          00000000
PSMC4PR1                          00000001
PSMC4PR10                         00000002
PSMC4PR11                         00000003
PSMC4PR12                         00000004
PSMC4PR13                         00000005
PSMC4PR14                         00000006
PSMC4PR15                         00000007
PSMC4PR2                          00000002
PSMC4PR3                          00000003
PSMC4PR4                          00000004
PSMC4PR5                          00000005
PSMC4PR6                          00000006
MPASM 5.86                        ESLAVE.ASM   11-21-2024  14:16:51         PAGE 48


SYMBOL TABLE
  LABEL                             VALUE 

PSMC4PR7                          00000007
PSMC4PR8                          00000000
PSMC4PR9                          00000001
PSMC4PRH                          00000F26
PSMC4PRL                          00000F25
PSMC4PRS                          00000F1C
PSMC4REBS                         00000F18
PSMC4SIE                          00000003
PSMC4SIF                          00000003
PSMC4STR0                         00000F2E
PSMC4STR1                         00000F2F
PSMC4SYNC                         00000F13
PSMC4TIE                          00000007
PSMC4TIF                          00000007
PSMC4TMR                          00000F27
PSMC4TMR0                         00000000
PSMC4TMR1                         00000001
PSMC4TMR10                        00000002
PSMC4TMR11                        00000003
PSMC4TMR12                        00000004
PSMC4TMR13                        00000005
PSMC4TMR14                        00000006
PSMC4TMR15                        00000007
PSMC4TMR2                         00000002
PSMC4TMR3                         00000003
PSMC4TMR4                         00000004
PSMC4TMR5                         00000005
PSMC4TMR6                         00000006
PSMC4TMR7                         00000007
PSMC4TMR8                         00000000
PSMC4TMR9                         00000001
PSMC4TMRH                         00000F28
PSMC4TMRL                         00000F27
PUSHIN                            00000000
RA0                               00000000
RA1                               00000001
RA2                               00000002
RA3                               00000003
RA4                               00000004
RA5                               00000005
RA6                               00000006
RA7                               00000007
RB0                               00000000
RB1                               00000001
RB2                               00000002
RB3                               00000003
RB4                               00000004
RB5                               00000005
RB6                               00000006
RB7                               00000007
RC0                               00000000
RC1                               00000001
RC1REG                            00000199
MPASM 5.86                        ESLAVE.ASM   11-21-2024  14:16:51         PAGE 49


SYMBOL TABLE
  LABEL                             VALUE 

RC1STA                            0000019D
RC2                               00000002
RC3                               00000003
RC4                               00000004
RC5                               00000005
RC6                               00000006
RC7                               00000007
RCEN                              00000003
RCIDL                             00000006
RCIE                              00000005
RCIF                              00000005
RCREG                             00000199
RCREG1                            00000199
RCSTA                             0000019D
RCSTA1                            0000019D
RD                                00000000
RD0                               00000000
RD1                               00000001
RD2                               00000002
RD3                               00000003
RD4                               00000004
RD5                               00000005
RD6                               00000006
RD7                               00000007
RE0                               00000000
RE1                               00000001
RE2                               00000002
RE3                               00000003
RECIEVE                           0000009A
RSEN                              00000001
RX9                               00000006
RX9D                              00000000
RXSEL                             00000001
R_NOT_W                           00000002
S                                 00000003
SBCDE                             00000002
SBOREN                            00000007
SCIE                              00000005
SCKP                              00000004
SCKSEL                            00000004
SCS0                              00000000
SCS1                              00000001
SDAHT                             00000003
SDISEL                            00000003
SDOSEL                            00000005
SEN                               00000000
SENDB                             00000003
SETA1                             00000065
SETA2                             00000065
SETAS1                            00000065
SETAS2                            00000065
SETB1                             00000065
SETB2                             00000065
MPASM 5.86                        ESLAVE.ASM   11-21-2024  14:16:51         PAGE 50


SYMBOL TABLE
  LABEL                             VALUE 

SETC2                             00000065
SETC3                             00000065
SETCS2                            00000065
SETD2                             00000065
SETDS2                            00000065
SETE1                             00000065
SETE2                             00000065
SETF1                             00000065
SETF2                             00000065
SETFS1                            00000065
SETFS2                            00000065
SETG1                             00000065
SETG2                             00000065
SETGS1                            00000065
SETGS2                            00000065
SETUP                             00000005
SLRCONA                           0000030C
SLRCONA0                          00000000
SLRCONA1                          00000001
SLRCONA2                          00000002
SLRCONA3                          00000003
SLRCONA4                          00000004
SLRCONA5                          00000005
SLRCONA6                          00000006
SLRCONA7                          00000007
SLRCONB                           0000030D
SLRCONB0                          00000000
SLRCONB1                          00000001
SLRCONB2                          00000002
SLRCONB3                          00000003
SLRCONB4                          00000004
SLRCONB5                          00000005
SLRCONB6                          00000006
SLRCONB7                          00000007
SLRCONC                           0000030E
SLRCONC0                          00000000
SLRCONC1                          00000001
SLRCONC2                          00000002
SLRCONC3                          00000003
SLRCONC4                          00000004
SLRCONC5                          00000005
SLRCONC6                          00000006
SLRCONC7                          00000007
SLRCOND                           0000030F
SLRCOND0                          00000000
SLRCOND1                          00000001
SLRCOND2                          00000002
SLRCOND3                          00000003
SLRCOND4                          00000004
SLRCOND5                          00000005
SLRCOND6                          00000006
SLRCOND7                          00000007
SLRCONE                           00000310
MPASM 5.86                        ESLAVE.ASM   11-21-2024  14:16:51         PAGE 51


SYMBOL TABLE
  LABEL                             VALUE 

SLRCONE0                          00000000
SLRCONE1                          00000001
SLRCONE2                          00000002
SMP                               00000007
SP                                00000006
SP1BRG                            0000019B
SP1BRGH                           0000019C
SP1BRGL                           0000019B
SPBRG                             0000019B
SPBRG1                            0000019B
SPBRGH                            0000019C
SPBRGH1                           0000019C
SPBRGL                            0000019B
SPEN                              00000007
SPLLEN                            00000007
SREN                              00000005
SSP1ADD                           00000212
SSP1ADD0                          00000000
SSP1ADD1                          00000001
SSP1ADD2                          00000002
SSP1ADD3                          00000003
SSP1ADD4                          00000004
SSP1ADD5                          00000005
SSP1ADD6                          00000006
SSP1ADD7                          00000007
SSP1BUF                           00000211
SSP1BUF0                          00000000
SSP1BUF1                          00000001
SSP1BUF2                          00000002
SSP1BUF3                          00000003
SSP1BUF4                          00000004
SSP1BUF5                          00000005
SSP1BUF6                          00000006
SSP1BUF7                          00000007
SSP1CON                           00000215
SSP1CON1                          00000215
SSP1CON2                          00000216
SSP1CON3                          00000217
SSP1IE                            00000003
SSP1IF                            00000003
SSP1MSK                           00000213
SSP1MSK0                          00000000
SSP1MSK1                          00000001
SSP1MSK2                          00000002
SSP1MSK3                          00000003
SSP1MSK4                          00000004
SSP1MSK5                          00000005
SSP1MSK6                          00000006
SSP1MSK7                          00000007
SSP1STAT                          00000214
SSPADD                            00000212
SSPBUF                            00000211
SSPCON                            00000215
MPASM 5.86                        ESLAVE.ASM   11-21-2024  14:16:51         PAGE 52


SYMBOL TABLE
  LABEL                             VALUE 

SSPCON1                           00000215
SSPCON2                           00000216
SSPCON3                           00000217
SSPEN                             00000005
SSPM0                             00000000
SSPM1                             00000001
SSPM2                             00000002
SSPM3                             00000003
SSPMSK                            00000213
SSPOV                             00000006
SSPSTAT                           00000214
START                             00000000
STATUS                            00000003
STATUS_SHAD                       00000FE4
STEP                              00000030
STEPBACK                          00000088
STEPBACKH                         0000007C
STEPBYTE1                         00000060
STEPBYTE2                         00000061
STEPBYTE3                         00000062
STEPBYTE4                         00000063
STEPFORWARD                       00000084
STEPFORWARDH                      00000074
STKOVF                            00000007
STKPTR                            00000FED
STKUNF                            00000006
STOP                              0000005F
SWDTEN                            00000000
SYNC                              00000004
T0CS                              00000005
T0IE                              00000005
T0IF                              00000002
T0SE                              00000004
T1CKPS0                           00000004
T1CKPS1                           00000005
T1CON                             00000018
T1GCON                            00000019
T1GGO                             00000003
T1GPOL                            00000006
T1GSPM                            00000004
T1GSS0                            00000000
T1GSS1                            00000001
T1GTM                             00000005
T1GVAL                            00000002
T1OSCEN                           00000003
T1OSCR                            00000007
T2CKPS0                           00000000
T2CKPS1                           00000001
T2CON                             0000001C
T2OUTPS0                          00000003
T2OUTPS1                          00000004
T2OUTPS2                          00000005
T2OUTPS3                          00000006
MPASM 5.86                        ESLAVE.ASM   11-21-2024  14:16:51         PAGE 53


SYMBOL TABLE
  LABEL                             VALUE 

TMR0                              00000015
TMR0CS                            00000005
TMR0IE                            00000005
TMR0IF                            00000002
TMR0SE                            00000004
TMR1                              00000016
TMR1CS0                           00000006
TMR1CS1                           00000007
TMR1GE                            00000007
TMR1GIE                           00000007
TMR1GIF                           00000007
TMR1H                             00000017
TMR1IE                            00000000
TMR1IF                            00000000
TMR1L                             00000016
TMR1ON                            00000000
TMR2                              0000001A
TMR2IE                            00000001
TMR2IF                            00000001
TMR2ON                            00000002
TOSH                              00000FEF
TOSL                              00000FEE
TRIGSEL0                          00000004
TRIGSEL1                          00000005
TRIGSEL2                          00000006
TRIGSEL3                          00000007
TRISA                             0000008C
TRISA0                            00000000
TRISA1                            00000001
TRISA2                            00000002
TRISA3                            00000003
TRISA4                            00000004
TRISA5                            00000005
TRISA6                            00000006
TRISA7                            00000007
TRISB                             0000008D
TRISB0                            00000000
TRISB1                            00000001
TRISB2                            00000002
TRISB3                            00000003
TRISB4                            00000004
TRISB5                            00000005
TRISB6                            00000006
TRISB7                            00000007
TRISC                             0000008E
TRISC0                            00000000
TRISC1                            00000001
TRISC2                            00000002
TRISC3                            00000003
TRISC4                            00000004
TRISC5                            00000005
TRISC6                            00000006
TRISC7                            00000007
MPASM 5.86                        ESLAVE.ASM   11-21-2024  14:16:51         PAGE 54


SYMBOL TABLE
  LABEL                             VALUE 

TRISD                             0000008F
TRISD0                            00000000
TRISD1                            00000001
TRISD2                            00000002
TRISD3                            00000003
TRISD4                            00000004
TRISD5                            00000005
TRISD6                            00000006
TRISD7                            00000007
TRISE                             00000090
TRISE0                            00000000
TRISE1                            00000001
TRISE2                            00000002
TRISE3                            00000003
TRMT                              00000001
TSEN                              00000005
TSRNG                             00000004
TUN0                              00000000
TUN1                              00000001
TUN2                              00000002
TUN3                              00000003
TUN4                              00000004
TUN5                              00000005
TX1REG                            0000019A
TX1STA                            0000019E
TX9                               00000006
TX9D                              00000000
TXEN                              00000005
TXIE                              00000004
TXIF                              00000004
TXREG                             0000019A
TXREG1                            0000019A
TXSEL                             00000002
TXSTA                             0000019E
TXSTA1                            0000019E
UA                                00000001
UPPERLOOP0                        00000022
VREGCON                           00000197
VREGPM                            00000001
W                                 00000000
WCOL                              00000007
WDTCON                            00000097
WDTPS0                            00000001
WDTPS1                            00000002
WDTPS2                            00000003
WDTPS3                            00000004
WDTPS4                            00000005
WPUA                              0000020C
WPUA0                             00000000
WPUA1                             00000001
WPUA2                             00000002
WPUA3                             00000003
WPUA4                             00000004
MPASM 5.86                        ESLAVE.ASM   11-21-2024  14:16:51         PAGE 55


SYMBOL TABLE
  LABEL                             VALUE 

WPUA5                             00000005
WPUA6                             00000006
WPUA7                             00000007
WPUB                              0000020D
WPUB0                             00000000
WPUB1                             00000001
WPUB2                             00000002
WPUB3                             00000003
WPUB4                             00000004
WPUB5                             00000005
WPUB6                             00000006
WPUB7                             00000007
WPUC                              0000020E
WPUC0                             00000000
WPUC1                             00000001
WPUC2                             00000002
WPUC3                             00000003
WPUC4                             00000004
WPUC5                             00000005
WPUC6                             00000006
WPUC7                             00000007
WPUD                              0000020F
WPUD0                             00000000
WPUD1                             00000001
WPUD2                             00000002
WPUD3                             00000003
WPUD4                             00000004
WPUD5                             00000005
WPUD6                             00000006
WPUD7                             00000007
WPUE                              00000210
WPUE0                             00000000
WPUE1                             00000001
WPUE2                             00000002
WPUE3                             00000003
WR                                00000001
WREG                              00000009
WREG_SHAD                         00000FE5
WREN                              00000002
WRERR                             00000003
WUE                               00000001
Z                                 00000002
Z_SHAD                            00000002
_.org_1_000A                      0000000A
_.org_1_00A1                      000000A1
_BOREN_NSLEEP                     00003DFF
_BOREN_OFF                        000039FF
_BOREN_ON                         00003FFF
_BOREN_SBODEN                     00003BFF
_BORV_HI                          00003BFF
_BORV_LO                          00003FFF
_CLKOUTEN_OFF                     00003FFF
_CLKOUTEN_ON                      000037FF
MPASM 5.86                        ESLAVE.ASM   11-21-2024  14:16:51         PAGE 56


SYMBOL TABLE
  LABEL                             VALUE 

_CONFIG1                          00008007
_CONFIG2                          00008008
_CPD_OFF                          00003FFF
_CPD_ON                           00003EFF
_CP_OFF                           00003FFF
_CP_ON                            00003F7F
_DEVID1                           00008006
_DRIVE_CODE_0033                  00000033
_DRIVE_CODE_0038                  00000038
_FCMEN_OFF                        00001FFF
_FCMEN_ON                         00003FFF
_FOSC_ECH                         00003FFF
_FOSC_ECL                         00003FFD
_FOSC_ECM                         00003FFE
_FOSC_EXTRC                       00003FFB
_FOSC_HS                          00003FFA
_FOSC_INTOSC                      00003FFC
_FOSC_LP                          00003FF8
_FOSC_XT                          00003FF9
_IDLOC0                           00008000
_IDLOC1                           00008001
_IDLOC2                           00008002
_IDLOC3                           00008003
_IESO_OFF                         00002FFF
_IESO_ON                          00003FFF
_LPBOR_OFF                        00003FFF
_LPBOR_ON                         000037FF
_LVP_OFF                          00001FFF
_LVP_ON                           00003FFF
_MCLRE_OFF                        00003FBF
_MCLRE_ON                         00003FFF
_PLLEN_OFF                        00003EFF
_PLLEN_ON                         00003FFF
_PWRTE_OFF                        00003FFF
_PWRTE_ON                         00003FDF
_STVREN_OFF                       00003DFF
_STVREN_ON                        00003FFF
_VCAPEN_OFF                       00003FFF
_VCAPEN_ON                        00003FDF
_WDTE_NSLEEP                      00003FF7
_WDTE_OFF                         00003FE7
_WDTE_ON                          00003FFF
_WDTE_SWDTEN                      00003FEF
_WRT_ALL                          00003FFC
_WRT_BOOT                         00003FFE
_WRT_HALF                         00003FFD
_WRT_OFF                          00003FFF
__16F1789                         00000001

Errors   :     0
Warnings :    40 reported,     0 suppressed
Messages :    39 reported,     0 suppressed

